; Listing generated by Microsoft (R) Optimizing Compiler Version 19.16.27034.0 

include listing.inc

INCLUDELIB MSVCRT
INCLUDELIB OLDNAMES

EXTRN	__imp_?staticMetaObject@QObject@@2UQMetaObject@@B:BYTE
CONST	SEGMENT
?qt_meta_stringdata_LogWatcher__DataBase@@3Uqt_meta_stringdata_LogWatcher__DataBase_t@@B DD 0ffffffffH ; qt_meta_stringdata_LogWatcher__DataBase
	DD	014H
	DD	00H
	ORG $+4
	DQ	0000000000000018H
	DB	04cH
	DB	06fH
	DB	067H
	DB	057H
	DB	061H
	DB	074H
	DB	063H
	DB	068H
	DB	065H
	DB	072H
	DB	03aH
	DB	03aH
	DB	044H
	DB	061H
	DB	074H
	DB	061H
	DB	042H
	DB	061H
	DB	073H
	DB	065H
	DB	00H
	ORG $+3
?qt_meta_data_LogWatcher__DataBase@@3QBIB DD 08H	; qt_meta_data_LogWatcher__DataBase
	DD	00H
	DD	00H
	DD	00H
	DD	00H
	DD	00H
	DD	00H
	DD	00H
	DD	00H
	DD	00H
	DD	00H
	DD	00H
	DD	00H
	DD	00H
	DD	00H
CONST	ENDS
PUBLIC	?metaObject@DataBase@LogWatcher@@UEBAPEBUQMetaObject@@XZ ; LogWatcher::DataBase::metaObject
PUBLIC	?qt_metacast@DataBase@LogWatcher@@UEAAPEAXPEBD@Z ; LogWatcher::DataBase::qt_metacast
PUBLIC	?qt_metacall@DataBase@LogWatcher@@UEAAHW4Call@QMetaObject@@HPEAPEAX@Z ; LogWatcher::DataBase::qt_metacall
PUBLIC	?qt_static_metacall@DataBase@LogWatcher@@CAXPEAVQObject@@W4Call@QMetaObject@@HPEAPEAX@Z ; LogWatcher::DataBase::qt_static_metacall
PUBLIC	?staticMetaObject@DataBase@LogWatcher@@2UQMetaObject@@B ; LogWatcher::DataBase::staticMetaObject
EXTRN	__imp_?dynamicMetaObject@QObjectData@@QEBAPEAUQMetaObject@@XZ:PROC
EXTRN	__imp_?qt_metacast@QObject@@UEAAPEAXPEBD@Z:PROC
EXTRN	__imp_?qt_metacall@QObject@@UEAAHW4Call@QMetaObject@@HPEAPEAX@Z:PROC
CRT$XCU	SEGMENT
??staticMetaObject$initializer$@DataBase@LogWatcher@@2P6AXXZEA@@3P6AXXZEA DQ FLAT:??__E?staticMetaObject@DataBase@LogWatcher@@2UQMetaObject@@B@@YAXXZ ; ??staticMetaObject$initializer$@DataBase@LogWatcher@@2P6AXXZEA@@3P6AXXZEA
CRT$XCU	ENDS
_DATA	SEGMENT
?staticMetaObject@DataBase@LogWatcher@@2UQMetaObject@@B DB 8 DUP(00H) ; LogWatcher::DataBase::staticMetaObject
	DQ	FLAT:?qt_meta_stringdata_LogWatcher__DataBase@@3Uqt_meta_stringdata_LogWatcher__DataBase_t@@B
	DQ	FLAT:?qt_meta_data_LogWatcher__DataBase@@3QBIB
	DQ	FLAT:?qt_static_metacall@DataBase@LogWatcher@@CAXPEAVQObject@@W4Call@QMetaObject@@HPEAPEAX@Z
	DQ	0000000000000000H
	DQ	0000000000000000H
_DATA	ENDS
; Function compile flags: /Ogtpy
;	COMDAT ??__E?staticMetaObject@DataBase@LogWatcher@@2UQMetaObject@@B@@YAXXZ
text$di	SEGMENT
??__E?staticMetaObject@DataBase@LogWatcher@@2UQMetaObject@@B@@YAXXZ PROC ; `dynamic initializer for 'LogWatcher::DataBase::staticMetaObject'', COMDAT
; File d:\builder\c++\logwatcher\64bit version\v1.3\logwatcher\logwatcher\x64\release\moc\moc_database.cpp
; Line 67
	mov	rax, QWORD PTR __imp_?staticMetaObject@QObject@@2UQMetaObject@@B
	mov	QWORD PTR ?staticMetaObject@DataBase@LogWatcher@@2UQMetaObject@@B, rax
; Line 72
	ret	0
??__E?staticMetaObject@DataBase@LogWatcher@@2UQMetaObject@@B@@YAXXZ ENDP ; `dynamic initializer for 'LogWatcher::DataBase::staticMetaObject''
text$di	ENDS
; Function compile flags: /Ogtpy
;	COMDAT ?qt_static_metacall@DataBase@LogWatcher@@CAXPEAVQObject@@W4Call@QMetaObject@@HPEAPEAX@Z
_TEXT	SEGMENT
_o$ = 8
_c$ = 16
_id$ = 24
_a$ = 32
?qt_static_metacall@DataBase@LogWatcher@@CAXPEAVQObject@@W4Call@QMetaObject@@HPEAPEAX@Z PROC ; LogWatcher::DataBase::qt_static_metacall, COMDAT
; File d:\builder\c++\logwatcher\64bit version\v1.3\logwatcher\logwatcher\x64\release\moc\moc_database.cpp
; Line 64
	ret	0
?qt_static_metacall@DataBase@LogWatcher@@CAXPEAVQObject@@W4Call@QMetaObject@@HPEAPEAX@Z ENDP ; LogWatcher::DataBase::qt_static_metacall
_TEXT	ENDS
; Function compile flags: /Ogtpy
;	COMDAT ?qt_metacall@DataBase@LogWatcher@@UEAAHW4Call@QMetaObject@@HPEAPEAX@Z
_TEXT	SEGMENT
this$ = 8
_c$ = 16
_id$ = 24
_a$ = 32
?qt_metacall@DataBase@LogWatcher@@UEAAHW4Call@QMetaObject@@HPEAPEAX@Z PROC ; LogWatcher::DataBase::qt_metacall, COMDAT
; File d:\builder\c++\logwatcher\64bit version\v1.3\logwatcher\logwatcher\x64\release\moc\moc_database.cpp
; Line 91
	rex_jmp	QWORD PTR __imp_?qt_metacall@QObject@@UEAAHW4Call@QMetaObject@@HPEAPEAX@Z
?qt_metacall@DataBase@LogWatcher@@UEAAHW4Call@QMetaObject@@HPEAPEAX@Z ENDP ; LogWatcher::DataBase::qt_metacall
_TEXT	ENDS
; Function compile flags: /Ogtpy
;	COMDAT ?qt_metacast@DataBase@LogWatcher@@UEAAPEAXPEBD@Z
_TEXT	SEGMENT
this$ = 8
_clname$ = 16
?qt_metacast@DataBase@LogWatcher@@UEAAPEAXPEBD@Z PROC	; LogWatcher::DataBase::qt_metacast, COMDAT
; File d:\builder\c++\logwatcher\64bit version\v1.3\logwatcher\logwatcher\x64\release\moc\moc_database.cpp
; Line 82
	mov	r9, rdx
	mov	r10, rcx
; Line 83
	test	rdx, rdx
	jne	SHORT $LN2@qt_metacas
	xor	eax, eax
; Line 87
	ret	0
$LN2@qt_metacas:
; Line 84
	lea	r8, OFFSET FLAT:?qt_meta_stringdata_LogWatcher__DataBase@@3Uqt_meta_stringdata_LogWatcher__DataBase_t@@B+24
	mov	rax, r9
	sub	r8, r9
	npad	5
$LL5@qt_metacas:
	movzx	edx, BYTE PTR [rax]
	movzx	ecx, BYTE PTR [rax+r8]
	sub	edx, ecx
	jne	SHORT $LN6@qt_metacas
	inc	rax
	test	ecx, ecx
	jne	SHORT $LL5@qt_metacas
$LN6@qt_metacas:
	test	edx, edx
	jne	SHORT $LN3@qt_metacas
; Line 85
	mov	rax, r10
; Line 87
	ret	0
$LN3@qt_metacas:
; Line 86
	mov	rdx, r9
	mov	rcx, r10
	rex_jmp	QWORD PTR __imp_?qt_metacast@QObject@@UEAAPEAXPEBD@Z
?qt_metacast@DataBase@LogWatcher@@UEAAPEAXPEBD@Z ENDP	; LogWatcher::DataBase::qt_metacast
_TEXT	ENDS
; Function compile flags: /Ogtpy
;	COMDAT ?metaObject@DataBase@LogWatcher@@UEBAPEBUQMetaObject@@XZ
_TEXT	SEGMENT
this$ = 8
?metaObject@DataBase@LogWatcher@@UEBAPEBUQMetaObject@@XZ PROC ; LogWatcher::DataBase::metaObject, COMDAT
; File d:\builder\c++\logwatcher\64bit version\v1.3\logwatcher\logwatcher\x64\release\moc\moc_database.cpp
; Line 78
	mov	rcx, QWORD PTR [rcx+8]
	cmp	QWORD PTR [rcx+40], 0
	je	SHORT $LN3@metaObject
	rex_jmp	QWORD PTR __imp_?dynamicMetaObject@QObjectData@@QEBAPEAUQMetaObject@@XZ
$LN3@metaObject:
	lea	rax, OFFSET FLAT:?staticMetaObject@DataBase@LogWatcher@@2UQMetaObject@@B ; LogWatcher::DataBase::staticMetaObject
; Line 79
	ret	0
?metaObject@DataBase@LogWatcher@@UEBAPEBUQMetaObject@@XZ ENDP ; LogWatcher::DataBase::metaObject
_TEXT	ENDS
; Function compile flags: /Ogtpy
;	COMDAT ??C?$QScopedPointer@VQObjectData@@U?$QScopedPointerDeleter@VQObjectData@@@@@@QEBAPEAVQObjectData@@XZ
_TEXT	SEGMENT
this$ = 8
??C?$QScopedPointer@VQObjectData@@U?$QScopedPointerDeleter@VQObjectData@@@@@@QEBAPEAVQObjectData@@XZ PROC ; QScopedPointer<QObjectData,QScopedPointerDeleter<QObjectData> >::operator->, COMDAT
; File c:\qt\qt5.13.0\5.13.0\msvc2017_64\include\qtcore\qscopedpointer.h
; Line 118
	mov	rax, QWORD PTR [rcx]
; Line 119
	ret	0
??C?$QScopedPointer@VQObjectData@@U?$QScopedPointerDeleter@VQObjectData@@@@@@QEBAPEAVQObjectData@@XZ ENDP ; QScopedPointer<QObjectData,QScopedPointerDeleter<QObjectData> >::operator->
_TEXT	ENDS
END
