; Listing generated by Microsoft (R) Optimizing Compiler Version 19.16.27034.0 

include listing.inc

INCLUDELIB MSVCRT
INCLUDELIB OLDNAMES

EXTRN	__imp_?staticMetaObject@QWidget@@2UQMetaObject@@B:BYTE
CONST	SEGMENT
?qt_meta_stringdata_LogWatcher__DataWidgetMapper@@3Uqt_meta_stringdata_LogWatcher__DataWidgetMapper_t@@B DD 0ffffffffH ; qt_meta_stringdata_LogWatcher__DataWidgetMapper
	DD	01cH
	DD	00H
	ORG $+4
	DQ	00000000000000a8H
	DD	0ffffffffH
	DD	010H
	DD	00H
	ORG $+4
	DQ	00000000000000adH
	DD	0ffffffffH
	DD	00H
	DD	00H
	ORG $+4
	DQ	00000000000000a6H
	DD	0ffffffffH
	DD	0eH
	DD	00H
	ORG $+4
	DQ	000000000000008fH
	DD	0ffffffffH
	DD	010H
	DD	00H
	ORG $+4
	DQ	0000000000000086H
	DD	0ffffffffH
	DD	017H
	DD	00H
	ORG $+4
	DQ	000000000000007fH
	DD	0ffffffffH
	DD	03H
	DD	00H
	ORG $+4
	DQ	000000000000007fH
	DB	04cH
	DB	06fH
	DB	067H
	DB	057H
	DB	061H
	DB	074H
	DB	063H
	DB	068H
	DB	065H
	DB	072H
	DB	03aH
	DB	03aH
	DB	044H
	DB	061H
	DB	074H
	DB	061H
	DB	057H
	DB	069H
	DB	064H
	DB	067H
	DB	065H
	DB	074H
	DB	04dH
	DB	061H
	DB	070H
	DB	070H
	DB	065H
	DB	072H
	DB	00H
	DB	073H
	DB	06cH
	DB	06fH
	DB	074H
	DB	055H
	DB	070H
	DB	064H
	DB	061H
	DB	074H
	DB	065H
	DB	04dH
	DB	06fH
	DB	064H
	DB	065H
	DB	06cH
	DB	073H
	DB	00H
	DB	00H
	DB	073H
	DB	06cH
	DB	06fH
	DB	074H
	DB	045H
	DB	064H
	DB	069H
	DB	074H
	DB	052H
	DB	065H
	DB	063H
	DB	06fH
	DB	072H
	DB	064H
	DB	00H
	DB	073H
	DB	06cH
	DB	06fH
	DB	074H
	DB	052H
	DB	065H
	DB	06dH
	DB	06fH
	DB	076H
	DB	065H
	DB	052H
	DB	065H
	DB	063H
	DB	06fH
	DB	072H
	DB	064H
	DB	00H
	DB	073H
	DB	06cH
	DB	06fH
	DB	074H
	DB	043H
	DB	075H
	DB	073H
	DB	074H
	DB	06fH
	DB	06dH
	DB	04dH
	DB	065H
	DB	06eH
	DB	075H
	DB	052H
	DB	065H
	DB	071H
	DB	075H
	DB	065H
	DB	073H
	DB	074H
	DB	065H
	DB	064H
	DB	00H
	DB	070H
	DB	06fH
	DB	073H
	DB	00H
	ORG $+5
	ORG $+8
?qt_meta_data_LogWatcher__DataWidgetMapper@@3QBIB DD 08H ; qt_meta_data_LogWatcher__DataWidgetMapper
	DD	00H
	DD	00H
	DD	00H
	DD	04H
	DD	0eH
	DD	00H
	DD	00H
	DD	00H
	DD	00H
	DD	00H
	DD	00H
	DD	00H
	DD	00H
	DD	01H
	DD	00H
	DD	022H
	DD	02H
	DD	08H
	DD	03H
	DD	00H
	DD	023H
	DD	02H
	DD	08H
	DD	04H
	DD	00H
	DD	024H
	DD	02H
	DD	08H
	DD	05H
	DD	01H
	DD	025H
	DD	02H
	DD	08H
	DD	02bH
	DD	02bH
	DD	02bH
	DD	02bH
	DD	019H
	DD	06H
	DD	00H
CONST	ENDS
PUBLIC	?metaObject@DataWidgetMapper@LogWatcher@@UEBAPEBUQMetaObject@@XZ ; LogWatcher::DataWidgetMapper::metaObject
PUBLIC	?qt_metacast@DataWidgetMapper@LogWatcher@@UEAAPEAXPEBD@Z ; LogWatcher::DataWidgetMapper::qt_metacast
PUBLIC	?qt_metacall@DataWidgetMapper@LogWatcher@@UEAAHW4Call@QMetaObject@@HPEAPEAX@Z ; LogWatcher::DataWidgetMapper::qt_metacall
PUBLIC	?qt_static_metacall@DataWidgetMapper@LogWatcher@@CAXPEAVQObject@@W4Call@QMetaObject@@HPEAPEAX@Z ; LogWatcher::DataWidgetMapper::qt_static_metacall
PUBLIC	?staticMetaObject@DataWidgetMapper@LogWatcher@@2UQMetaObject@@B ; LogWatcher::DataWidgetMapper::staticMetaObject
EXTRN	__imp_?dynamicMetaObject@QObjectData@@QEBAPEAUQMetaObject@@XZ:PROC
EXTRN	__imp_?qt_metacast@QWidget@@UEAAPEAXPEBD@Z:PROC
EXTRN	__imp_?qt_metacall@QWidget@@UEAAHW4Call@QMetaObject@@HPEAPEAX@Z:PROC
EXTRN	?slotUpdateModels@DataWidgetMapper@LogWatcher@@AEAAXXZ:PROC ; LogWatcher::DataWidgetMapper::slotUpdateModels
EXTRN	?slotEditRecord@DataWidgetMapper@LogWatcher@@AEAAXXZ:PROC ; LogWatcher::DataWidgetMapper::slotEditRecord
EXTRN	?slotRemoveRecord@DataWidgetMapper@LogWatcher@@AEAAXXZ:PROC ; LogWatcher::DataWidgetMapper::slotRemoveRecord
EXTRN	?slotCustomMenuRequested@DataWidgetMapper@LogWatcher@@AEAAXAEBVQPoint@@@Z:PROC ; LogWatcher::DataWidgetMapper::slotCustomMenuRequested
;	COMDAT pdata
pdata	SEGMENT
$pdata$?qt_metacall@DataWidgetMapper@LogWatcher@@UEAAHW4Call@QMetaObject@@HPEAPEAX@Z DD imagerel $LN20
	DD	imagerel $LN20+161
	DD	imagerel $unwind$?qt_metacall@DataWidgetMapper@LogWatcher@@UEAAHW4Call@QMetaObject@@HPEAPEAX@Z
pdata	ENDS
CRT$XCU	SEGMENT
??staticMetaObject$initializer$@DataWidgetMapper@LogWatcher@@2P6AXXZEA@@3P6AXXZEA DQ FLAT:??__E?staticMetaObject@DataWidgetMapper@LogWatcher@@2UQMetaObject@@B@@YAXXZ ; ??staticMetaObject$initializer$@DataWidgetMapper@LogWatcher@@2P6AXXZEA@@3P6AXXZEA
CRT$XCU	ENDS
_DATA	SEGMENT
?staticMetaObject@DataWidgetMapper@LogWatcher@@2UQMetaObject@@B DB 8 DUP(00H) ; LogWatcher::DataWidgetMapper::staticMetaObject
	DQ	FLAT:?qt_meta_stringdata_LogWatcher__DataWidgetMapper@@3Uqt_meta_stringdata_LogWatcher__DataWidgetMapper_t@@B
	DQ	FLAT:?qt_meta_data_LogWatcher__DataWidgetMapper@@3QBIB
	DQ	FLAT:?qt_static_metacall@DataWidgetMapper@LogWatcher@@CAXPEAVQObject@@W4Call@QMetaObject@@HPEAPEAX@Z
	DQ	0000000000000000H
	DQ	0000000000000000H
_DATA	ENDS
;	COMDAT xdata
xdata	SEGMENT
$unwind$?qt_metacall@DataWidgetMapper@LogWatcher@@UEAAHW4Call@QMetaObject@@HPEAPEAX@Z DD 081501H
	DD	087415H
	DD	076415H
	DD	063415H
	DD	0e0113215H
xdata	ENDS
; Function compile flags: /Ogtpy
;	COMDAT ??__E?staticMetaObject@DataWidgetMapper@LogWatcher@@2UQMetaObject@@B@@YAXXZ
text$di	SEGMENT
??__E?staticMetaObject@DataWidgetMapper@LogWatcher@@2UQMetaObject@@B@@YAXXZ PROC ; `dynamic initializer for 'LogWatcher::DataWidgetMapper::staticMetaObject'', COMDAT
; File d:\builder\c++\logwatcher\64bit version\v1.3\logwatcher\logwatcher\x64\release\moc\moc_datawidgetmapper.cpp
; Line 95
	mov	rax, QWORD PTR __imp_?staticMetaObject@QWidget@@2UQMetaObject@@B
	mov	QWORD PTR ?staticMetaObject@DataWidgetMapper@LogWatcher@@2UQMetaObject@@B, rax
; Line 100
	ret	0
??__E?staticMetaObject@DataWidgetMapper@LogWatcher@@2UQMetaObject@@B@@YAXXZ ENDP ; `dynamic initializer for 'LogWatcher::DataWidgetMapper::staticMetaObject''
text$di	ENDS
; Function compile flags: /Ogtpy
;	COMDAT ?qt_static_metacall@DataWidgetMapper@LogWatcher@@CAXPEAVQObject@@W4Call@QMetaObject@@HPEAPEAX@Z
_TEXT	SEGMENT
_o$ = 8
_c$ = 16
_id$ = 24
_a$ = 32
?qt_static_metacall@DataWidgetMapper@LogWatcher@@CAXPEAVQObject@@W4Call@QMetaObject@@HPEAPEAX@Z PROC ; LogWatcher::DataWidgetMapper::qt_static_metacall, COMDAT
; File d:\builder\c++\logwatcher\64bit version\v1.3\logwatcher\logwatcher\x64\release\moc\moc_datawidgetmapper.cpp
; Line 81
	test	edx, edx
	jne	SHORT $LN9@qt_static_
; Line 84
	test	r8d, r8d
	je	SHORT $LN5@qt_static_
	sub	r8d, 1
	je	SHORT $LN6@qt_static_
	sub	r8d, 1
	je	SHORT $LN7@qt_static_
	cmp	r8d, 1
	jne	SHORT $LN9@qt_static_
; Line 88
	mov	rdx, QWORD PTR [r9+8]
	jmp	?slotCustomMenuRequested@DataWidgetMapper@LogWatcher@@AEAAXAEBVQPoint@@@Z ; LogWatcher::DataWidgetMapper::slotCustomMenuRequested
$LN7@qt_static_:
; Line 87
	jmp	?slotRemoveRecord@DataWidgetMapper@LogWatcher@@AEAAXXZ ; LogWatcher::DataWidgetMapper::slotRemoveRecord
$LN6@qt_static_:
; Line 86
	jmp	?slotEditRecord@DataWidgetMapper@LogWatcher@@AEAAXXZ ; LogWatcher::DataWidgetMapper::slotEditRecord
$LN5@qt_static_:
; Line 85
	jmp	?slotUpdateModels@DataWidgetMapper@LogWatcher@@AEAAXXZ ; LogWatcher::DataWidgetMapper::slotUpdateModels
$LN9@qt_static_:
; Line 92
	ret	0
?qt_static_metacall@DataWidgetMapper@LogWatcher@@CAXPEAVQObject@@W4Call@QMetaObject@@HPEAPEAX@Z ENDP ; LogWatcher::DataWidgetMapper::qt_static_metacall
_TEXT	ENDS
; Function compile flags: /Ogtpy
;	COMDAT ?qt_metacall@DataWidgetMapper@LogWatcher@@UEAAHW4Call@QMetaObject@@HPEAPEAX@Z
_TEXT	SEGMENT
this$ = 48
_c$ = 56
_id$ = 64
_a$ = 72
?qt_metacall@DataWidgetMapper@LogWatcher@@UEAAHW4Call@QMetaObject@@HPEAPEAX@Z PROC ; LogWatcher::DataWidgetMapper::qt_metacall, COMDAT
; File d:\builder\c++\logwatcher\64bit version\v1.3\logwatcher\logwatcher\x64\release\moc\moc_datawidgetmapper.cpp
; Line 118
$LN20:
	mov	QWORD PTR [rsp+8], rbx
	mov	QWORD PTR [rsp+16], rsi
	mov	QWORD PTR [rsp+24], rdi
	push	r14
	sub	rsp, 32					; 00000020H
	mov	r14, r9
	mov	esi, edx
	mov	rdi, rcx
; Line 119
	call	QWORD PTR __imp_?qt_metacall@QWidget@@UEAAHW4Call@QMetaObject@@HPEAPEAX@Z
	mov	ebx, eax
; Line 120
	test	eax, eax
	js	SHORT $LN1@qt_metacal
; Line 122
	test	esi, esi
	jne	SHORT $LN3@qt_metacal
; Line 123
	cmp	eax, 4
	jge	SHORT $LN7@qt_metacal
; Line 84
	mov	ecx, eax
	test	eax, eax
	je	SHORT $LN13@qt_metacal
	sub	ecx, 1
	je	SHORT $LN14@qt_metacal
	sub	ecx, 1
	je	SHORT $LN15@qt_metacal
	cmp	ecx, 1
	jne	SHORT $LN7@qt_metacal
; Line 88
	mov	rdx, QWORD PTR [r14+8]
	mov	rcx, rdi
	call	?slotCustomMenuRequested@DataWidgetMapper@LogWatcher@@AEAAXAEBVQPoint@@@Z ; LogWatcher::DataWidgetMapper::slotCustomMenuRequested
	jmp	SHORT $LN7@qt_metacal
$LN15@qt_metacal:
; Line 87
	mov	rcx, rdi
	call	?slotRemoveRecord@DataWidgetMapper@LogWatcher@@AEAAXXZ ; LogWatcher::DataWidgetMapper::slotRemoveRecord
	jmp	SHORT $LN7@qt_metacal
$LN14@qt_metacal:
; Line 86
	mov	rcx, rdi
	call	?slotEditRecord@DataWidgetMapper@LogWatcher@@AEAAXXZ ; LogWatcher::DataWidgetMapper::slotEditRecord
	jmp	SHORT $LN7@qt_metacal
$LN13@qt_metacal:
; Line 85
	mov	rcx, rdi
	call	?slotUpdateModels@DataWidgetMapper@LogWatcher@@AEAAXXZ ; LogWatcher::DataWidgetMapper::slotUpdateModels
; Line 125
	jmp	SHORT $LN7@qt_metacal
$LN3@qt_metacal:
; Line 126
	cmp	esi, 12
	jne	SHORT $LN6@qt_metacal
; Line 127
	cmp	ebx, 4
	jge	SHORT $LN7@qt_metacal
; Line 128
	mov	rax, QWORD PTR [r14]
	mov	DWORD PTR [rax], -1
$LN7@qt_metacal:
; Line 131
	sub	ebx, 4
$LN6@qt_metacal:
	mov	eax, ebx
$LN1@qt_metacal:
; Line 132
	mov	rbx, QWORD PTR [rsp+48]
	mov	rsi, QWORD PTR [rsp+56]
	mov	rdi, QWORD PTR [rsp+64]
	add	rsp, 32					; 00000020H
	pop	r14
	ret	0
?qt_metacall@DataWidgetMapper@LogWatcher@@UEAAHW4Call@QMetaObject@@HPEAPEAX@Z ENDP ; LogWatcher::DataWidgetMapper::qt_metacall
_TEXT	ENDS
; Function compile flags: /Ogtpy
;	COMDAT ?qt_metacast@DataWidgetMapper@LogWatcher@@UEAAPEAXPEBD@Z
_TEXT	SEGMENT
this$ = 8
_clname$ = 16
?qt_metacast@DataWidgetMapper@LogWatcher@@UEAAPEAXPEBD@Z PROC ; LogWatcher::DataWidgetMapper::qt_metacast, COMDAT
; File d:\builder\c++\logwatcher\64bit version\v1.3\logwatcher\logwatcher\x64\release\moc\moc_datawidgetmapper.cpp
; Line 110
	mov	r9, rdx
	mov	r10, rcx
; Line 111
	test	rdx, rdx
	jne	SHORT $LN2@qt_metacas
	xor	eax, eax
; Line 115
	ret	0
$LN2@qt_metacas:
; Line 112
	lea	r8, OFFSET FLAT:?qt_meta_stringdata_LogWatcher__DataWidgetMapper@@3Uqt_meta_stringdata_LogWatcher__DataWidgetMapper_t@@B+168
	mov	rax, r9
	sub	r8, r9
	npad	5
$LL5@qt_metacas:
	movzx	edx, BYTE PTR [rax]
	movzx	ecx, BYTE PTR [rax+r8]
	sub	edx, ecx
	jne	SHORT $LN6@qt_metacas
	inc	rax
	test	ecx, ecx
	jne	SHORT $LL5@qt_metacas
$LN6@qt_metacas:
	test	edx, edx
	jne	SHORT $LN3@qt_metacas
; Line 113
	mov	rax, r10
; Line 115
	ret	0
$LN3@qt_metacas:
; Line 114
	mov	rdx, r9
	mov	rcx, r10
	rex_jmp	QWORD PTR __imp_?qt_metacast@QWidget@@UEAAPEAXPEBD@Z
?qt_metacast@DataWidgetMapper@LogWatcher@@UEAAPEAXPEBD@Z ENDP ; LogWatcher::DataWidgetMapper::qt_metacast
_TEXT	ENDS
; Function compile flags: /Ogtpy
;	COMDAT ?metaObject@DataWidgetMapper@LogWatcher@@UEBAPEBUQMetaObject@@XZ
_TEXT	SEGMENT
this$ = 8
?metaObject@DataWidgetMapper@LogWatcher@@UEBAPEBUQMetaObject@@XZ PROC ; LogWatcher::DataWidgetMapper::metaObject, COMDAT
; File d:\builder\c++\logwatcher\64bit version\v1.3\logwatcher\logwatcher\x64\release\moc\moc_datawidgetmapper.cpp
; Line 106
	mov	rcx, QWORD PTR [rcx+8]
	cmp	QWORD PTR [rcx+40], 0
	je	SHORT $LN3@metaObject
	rex_jmp	QWORD PTR __imp_?dynamicMetaObject@QObjectData@@QEBAPEAUQMetaObject@@XZ
$LN3@metaObject:
	lea	rax, OFFSET FLAT:?staticMetaObject@DataWidgetMapper@LogWatcher@@2UQMetaObject@@B ; LogWatcher::DataWidgetMapper::staticMetaObject
; Line 107
	ret	0
?metaObject@DataWidgetMapper@LogWatcher@@UEBAPEBUQMetaObject@@XZ ENDP ; LogWatcher::DataWidgetMapper::metaObject
_TEXT	ENDS
; Function compile flags: /Ogtpy
;	COMDAT ??C?$QScopedPointer@VQObjectData@@U?$QScopedPointerDeleter@VQObjectData@@@@@@QEBAPEAVQObjectData@@XZ
_TEXT	SEGMENT
this$ = 8
??C?$QScopedPointer@VQObjectData@@U?$QScopedPointerDeleter@VQObjectData@@@@@@QEBAPEAVQObjectData@@XZ PROC ; QScopedPointer<QObjectData,QScopedPointerDeleter<QObjectData> >::operator->, COMDAT
; File c:\qt\qt5.13.0\5.13.0\msvc2017_64\include\qtcore\qscopedpointer.h
; Line 118
	mov	rax, QWORD PTR [rcx]
; Line 119
	ret	0
??C?$QScopedPointer@VQObjectData@@U?$QScopedPointerDeleter@VQObjectData@@@@@@QEBAPEAVQObjectData@@XZ ENDP ; QScopedPointer<QObjectData,QScopedPointerDeleter<QObjectData> >::operator->
_TEXT	ENDS
END
