; Listing generated by Microsoft (R) Optimizing Compiler Version 19.16.27034.0 

include listing.inc

INCLUDELIB MSVCRT
INCLUDELIB OLDNAMES

EXTRN	__imp_?staticMetaObject@QMainWindow@@2UQMetaObject@@B:BYTE
CONST	SEGMENT
?qt_meta_stringdata_LogWatcher__LogWatcher@@3Uqt_meta_stringdata_LogWatcher__LogWatcher_t@@B DD 0ffffffffH ; qt_meta_stringdata_LogWatcher__LogWatcher
	DD	016H
	DD	00H
	ORG $+4
	DQ	0000000000000198H
	DD	0ffffffffH
	DD	019H
	DD	00H
	ORG $+4
	DQ	0000000000000197H
	DD	0ffffffffH
	DD	00H
	DD	00H
	ORG $+4
	DQ	0000000000000199H
	DD	0ffffffffH
	DD	0eH
	DD	00H
	ORG $+4
	DQ	0000000000000182H
	DD	0ffffffffH
	DD	01eH
	DD	00H
	ORG $+4
	DQ	0000000000000179H
	DD	0ffffffffH
	DD	05H
	DD	00H
	ORG $+4
	DQ	0000000000000180H
	DD	0ffffffffH
	DD	024H
	DD	00H
	ORG $+4
	DQ	000000000000016eH
	DD	0ffffffffH
	DD	019H
	DD	00H
	ORG $+4
	DQ	000000000000017bH
	DD	0ffffffffH
	DD	01eH
	DD	00H
	ORG $+4
	DQ	000000000000017dH
	DD	0ffffffffH
	DD	01fH
	DD	00H
	ORG $+4
	DQ	0000000000000184H
	DD	0ffffffffH
	DD	01dH
	DD	00H
	ORG $+4
	DQ	000000000000018cH
	DD	0ffffffffH
	DD	01bH
	DD	00H
	ORG $+4
	DQ	0000000000000192H
	DD	0ffffffffH
	DD	010H
	DD	00H
	ORG $+4
	DQ	0000000000000196H
	DD	0ffffffffH
	DD	0eH
	DD	00H
	ORG $+4
	DQ	000000000000018fH
	DD	0ffffffffH
	DD	017H
	DD	00H
	ORG $+4
	DQ	0000000000000186H
	DD	0ffffffffH
	DD	03H
	DD	00H
	ORG $+4
	DQ	0000000000000186H
	DD	0ffffffffH
	DD	01dH
	DD	00H
	ORG $+4
	DQ	0000000000000172H
	DB	04cH
	DB	06fH
	DB	067H
	DB	057H
	DB	061H
	DB	074H
	DB	063H
	DB	068H
	DB	065H
	DB	072H
	DB	03aH
	DB	03aH
	DB	04cH
	DB	06fH
	DB	067H
	DB	057H
	DB	061H
	DB	074H
	DB	063H
	DB	068H
	DB	065H
	DB	072H
	DB	00H
	DB	06fH
	DB	06eH
	DB	05fH
	DB	070H
	DB	075H
	DB	073H
	DB	068H
	DB	042H
	DB	075H
	DB	074H
	DB	074H
	DB	06fH
	DB	06eH
	DB	04fH
	DB	070H
	DB	065H
	DB	06eH
	DB	05fH
	DB	063H
	DB	06cH
	DB	069H
	DB	063H
	DB	06bH
	DB	065H
	DB	064H
	DB	00H
	DB	00H
	DB	061H
	DB	070H
	DB	070H
	DB	065H
	DB	06eH
	DB	064H
	DB	046H
	DB	069H
	DB	06cH
	DB	065H
	DB	044H
	DB	061H
	DB	074H
	DB	061H
	DB	00H
	DB	06fH
	DB	06eH
	DB	05fH
	DB	074H
	DB	061H
	DB	062H
	DB	057H
	DB	069H
	DB	064H
	DB	067H
	DB	065H
	DB	074H
	DB	05fH
	DB	074H
	DB	061H
	DB	062H
	DB	043H
	DB	06cH
	DB	06fH
	DB	073H
	DB	065H
	DB	052H
	DB	065H
	DB	067H
	DB	075H
	DB	065H
	DB	073H
	DB	074H
	DB	065H
	DB	064H
	DB	00H
	DB	069H
	DB	06eH
	DB	064H
	DB	065H
	DB	078H
	DB	00H
	DB	06fH
	DB	06eH
	DB	05fH
	DB	074H
	DB	061H
	DB	062H
	DB	057H
	DB	069H
	DB	064H
	DB	067H
	DB	065H
	DB	074H
	DB	05fH
	DB	074H
	DB	061H
	DB	062H
	DB	043H
	DB	06cH
	DB	06fH
	DB	073H
	DB	065H
	DB	052H
	DB	065H
	DB	067H
	DB	075H
	DB	065H
	DB	073H
	DB	074H
	DB	065H
	DB	064H
	DB	053H
	DB	065H
	DB	061H
	DB	072H
	DB	063H
	DB	068H
	DB	00H
	DB	06fH
	DB	06eH
	DB	05fH
	DB	070H
	DB	075H
	DB	073H
	DB	068H
	DB	042H
	DB	075H
	DB	074H
	DB	074H
	DB	06fH
	DB	06eH
	DB	04eH
	DB	065H
	DB	078H
	DB	074H
	DB	05fH
	DB	063H
	DB	06cH
	DB	069H
	DB	063H
	DB	06bH
	DB	065H
	DB	064H
	DB	00H
	DB	06fH
	DB	06eH
	DB	05fH
	DB	070H
	DB	075H
	DB	073H
	DB	068H
	DB	042H
	DB	075H
	DB	074H
	DB	074H
	DB	06fH
	DB	06eH
	DB	049H
	DB	06eH
	DB	074H
	DB	065H
	DB	06cH
	DB	06cH
	DB	065H
	DB	063H
	DB	074H
	DB	05fH
	DB	063H
	DB	06cH
	DB	069H
	DB	063H
	DB	06bH
	DB	065H
	DB	064H
	DB	00H
	DB	06fH
	DB	06eH
	DB	05fH
	DB	070H
	DB	075H
	DB	073H
	DB	068H
	DB	042H
	DB	075H
	DB	074H
	DB	074H
	DB	06fH
	DB	06eH
	DB	04fH
	DB	070H
	DB	065H
	DB	06eH
	DB	053H
	DB	065H
	DB	061H
	DB	072H
	DB	063H
	DB	068H
	DB	05fH
	DB	063H
	DB	06cH
	DB	069H
	DB	063H
	DB	06bH
	DB	065H
	DB	064H
	DB	00H
	DB	06fH
	DB	06eH
	DB	05fH
	DB	070H
	DB	075H
	DB	073H
	DB	068H
	DB	042H
	DB	075H
	DB	074H
	DB	074H
	DB	06fH
	DB	06eH
	DB	045H
	DB	064H
	DB	069H
	DB	074H
	DB	044H
	DB	061H
	DB	074H
	DB	061H
	DB	05fH
	DB	063H
	DB	06cH
	DB	069H
	DB	063H
	DB	06bH
	DB	065H
	DB	064H
	DB	00H
	DB	06fH
	DB	06eH
	DB	05fH
	DB	070H
	DB	075H
	DB	073H
	DB	068H
	DB	042H
	DB	075H
	DB	074H
	DB	074H
	DB	06fH
	DB	06eH
	DB	041H
	DB	06eH
	DB	061H
	DB	06cH
	DB	079H
	DB	07aH
	DB	05fH
	DB	063H
	DB	06cH
	DB	069H
	DB	063H
	DB	06bH
	DB	065H
	DB	064H
	DB	00H
	DB	073H
	DB	06cH
	DB	06fH
	DB	074H
	DB	043H
	DB	072H
	DB	065H
	DB	061H
	DB	074H
	DB	065H
	DB	052H
	DB	065H
	DB	063H
	DB	06fH
	DB	072H
	DB	064H
	DB	00H
	DB	073H
	DB	06cH
	DB	06fH
	DB	074H
	DB	046H
	DB	069H
	DB	06eH
	DB	064H
	DB	052H
	DB	065H
	DB	063H
	DB	06fH
	DB	072H
	DB	064H
	DB	00H
	DB	073H
	DB	06cH
	DB	06fH
	DB	074H
	DB	043H
	DB	075H
	DB	073H
	DB	074H
	DB	06fH
	DB	06dH
	DB	04dH
	DB	065H
	DB	06eH
	DB	075H
	DB	052H
	DB	065H
	DB	071H
	DB	075H
	DB	065H
	DB	073H
	DB	074H
	DB	065H
	DB	064H
	DB	00H
	DB	070H
	DB	06fH
	DB	073H
	DB	00H
	DB	073H
	DB	06cH
	DB	06fH
	DB	074H
	DB	043H
	DB	075H
	DB	073H
	DB	074H
	DB	06fH
	DB	06dH
	DB	04dH
	DB	065H
	DB	06eH
	DB	075H
	DB	052H
	DB	065H
	DB	071H
	DB	075H
	DB	065H
	DB	073H
	DB	074H
	DB	065H
	DB	064H
	DB	053H
	DB	065H
	DB	061H
	DB	072H
	DB	063H
	DB	068H
	DB	00H
?qt_meta_data_LogWatcher__LogWatcher@@3QBIB DD 08H	; qt_meta_data_LogWatcher__LogWatcher
	DD	00H
	DD	00H
	DD	00H
	DD	0dH
	DD	0eH
	DD	00H
	DD	00H
	DD	00H
	DD	00H
	DD	00H
	DD	00H
	DD	00H
	DD	00H
	DD	01H
	DD	00H
	DD	04fH
	DD	02H
	DD	08H
	DD	03H
	DD	01H
	DD	050H
	DD	02H
	DD	08H
	DD	04H
	DD	01H
	DD	053H
	DD	02H
	DD	08H
	DD	06H
	DD	01H
	DD	056H
	DD	02H
	DD	08H
	DD	07H
	DD	00H
	DD	059H
	DD	02H
	DD	08H
	DD	08H
	DD	00H
	DD	05aH
	DD	02H
	DD	08H
	DD	09H
	DD	00H
	DD	05bH
	DD	02H
	DD	08H
	DD	0aH
	DD	00H
	DD	05cH
	DD	02H
	DD	08H
	DD	0bH
	DD	00H
	DD	05dH
	DD	02H
	DD	08H
	DD	0cH
	DD	00H
	DD	05eH
	DD	02H
	DD	08H
	DD	0dH
	DD	00H
	DD	05fH
	DD	02H
	DD	08H
	DD	0eH
	DD	01H
	DD	060H
	DD	02H
	DD	08H
	DD	010H
	DD	01H
	DD	063H
	DD	02H
	DD	08H
	DD	02bH
	DD	02bH
	DD	02H
	DD	02H
	DD	02bH
	DD	02H
	DD	05H
	DD	02bH
	DD	02H
	DD	05H
	DD	02bH
	DD	02bH
	DD	02bH
	DD	02bH
	DD	02bH
	DD	02bH
	DD	02bH
	DD	02bH
	DD	019H
	DD	0fH
	DD	02bH
	DD	019H
	DD	0fH
	DD	00H
CONST	ENDS
PUBLIC	?metaObject@LogWatcher@1@UEBAPEBUQMetaObject@@XZ ; LogWatcher::LogWatcher::metaObject
PUBLIC	?qt_metacast@LogWatcher@1@UEAAPEAXPEBD@Z	; LogWatcher::LogWatcher::qt_metacast
PUBLIC	?qt_metacall@LogWatcher@1@UEAAHW4Call@QMetaObject@@HPEAPEAX@Z ; LogWatcher::LogWatcher::qt_metacall
PUBLIC	?qt_static_metacall@LogWatcher@1@CAXPEAVQObject@@W4Call@QMetaObject@@HPEAPEAX@Z ; LogWatcher::LogWatcher::qt_static_metacall
PUBLIC	?staticMetaObject@LogWatcher@1@2UQMetaObject@@B	; LogWatcher::LogWatcher::staticMetaObject
EXTRN	__imp_?dynamicMetaObject@QObjectData@@QEBAPEAUQMetaObject@@XZ:PROC
EXTRN	__imp_?qt_metacast@QMainWindow@@UEAAPEAXPEBD@Z:PROC
EXTRN	__imp_?qt_metacall@QMainWindow@@UEAAHW4Call@QMetaObject@@HPEAPEAX@Z:PROC
EXTRN	?on_pushButtonOpen_clicked@LogWatcher@1@AEAAXXZ:PROC ; LogWatcher::LogWatcher::on_pushButtonOpen_clicked
EXTRN	?appendFileData@LogWatcher@1@AEAAXH@Z:PROC	; LogWatcher::LogWatcher::appendFileData
EXTRN	?on_tabWidget_tabCloseReguested@LogWatcher@1@AEAAXH@Z:PROC ; LogWatcher::LogWatcher::on_tabWidget_tabCloseReguested
EXTRN	?on_tabWidget_tabCloseReguestedSearch@LogWatcher@1@AEAAXH@Z:PROC ; LogWatcher::LogWatcher::on_tabWidget_tabCloseReguestedSearch
EXTRN	?on_pushButtonNext_clicked@LogWatcher@1@AEAAXXZ:PROC ; LogWatcher::LogWatcher::on_pushButtonNext_clicked
EXTRN	?on_pushButtonIntellect_clicked@LogWatcher@1@AEAAXXZ:PROC ; LogWatcher::LogWatcher::on_pushButtonIntellect_clicked
EXTRN	?on_pushButtonOpenSearch_clicked@LogWatcher@1@AEAAXXZ:PROC ; LogWatcher::LogWatcher::on_pushButtonOpenSearch_clicked
EXTRN	?on_pushButtonEditData_clicked@LogWatcher@1@AEAAXXZ:PROC ; LogWatcher::LogWatcher::on_pushButtonEditData_clicked
EXTRN	?on_pushButtonAnalyz_clicked@LogWatcher@1@AEAAXXZ:PROC ; LogWatcher::LogWatcher::on_pushButtonAnalyz_clicked
EXTRN	?slotCreateRecord@LogWatcher@1@AEAAXXZ:PROC	; LogWatcher::LogWatcher::slotCreateRecord
EXTRN	?slotFindRecord@LogWatcher@1@AEAAXXZ:PROC	; LogWatcher::LogWatcher::slotFindRecord
EXTRN	?slotCustomMenuRequested@LogWatcher@1@AEAAXAEBVQPoint@@@Z:PROC ; LogWatcher::LogWatcher::slotCustomMenuRequested
EXTRN	?slotCustomMenuRequestedSearch@LogWatcher@1@AEAAXAEBVQPoint@@@Z:PROC ; LogWatcher::LogWatcher::slotCustomMenuRequestedSearch
EXTRN	__ImageBase:BYTE
;	COMDAT pdata
pdata	SEGMENT
$pdata$?qt_metacall@LogWatcher@1@UEAAHW4Call@QMetaObject@@HPEAPEAX@Z DD imagerel $LN10
	DD	imagerel $LN10+112
	DD	imagerel $unwind$?qt_metacall@LogWatcher@1@UEAAHW4Call@QMetaObject@@HPEAPEAX@Z
pdata	ENDS
CRT$XCU	SEGMENT
??staticMetaObject$initializer$@LogWatcher@1@2P6AXXZEA@@3P6AXXZEA DQ FLAT:??__E?staticMetaObject@LogWatcher@1@2UQMetaObject@@B@@YAXXZ ; ??staticMetaObject$initializer$@LogWatcher@1@2P6AXXZEA@@3P6AXXZEA
CRT$XCU	ENDS
_DATA	SEGMENT
?staticMetaObject@LogWatcher@1@2UQMetaObject@@B DB 8 DUP(00H) ; LogWatcher::LogWatcher::staticMetaObject
	DQ	FLAT:?qt_meta_stringdata_LogWatcher__LogWatcher@@3Uqt_meta_stringdata_LogWatcher__LogWatcher_t@@B
	DQ	FLAT:?qt_meta_data_LogWatcher__LogWatcher@@3QBIB
	DQ	FLAT:?qt_static_metacall@LogWatcher@1@CAXPEAVQObject@@W4Call@QMetaObject@@HPEAPEAX@Z
	DQ	0000000000000000H
	DQ	0000000000000000H
_DATA	ENDS
;	COMDAT xdata
xdata	SEGMENT
$unwind$?qt_metacall@LogWatcher@1@UEAAHW4Call@QMetaObject@@HPEAPEAX@Z DD 081401H
	DD	086414H
	DD	075414H
	DD	063414H
	DD	070103214H
xdata	ENDS
; Function compile flags: /Ogtpy
;	COMDAT ??__E?staticMetaObject@LogWatcher@1@2UQMetaObject@@B@@YAXXZ
text$di	SEGMENT
??__E?staticMetaObject@LogWatcher@1@2UQMetaObject@@B@@YAXXZ PROC ; `dynamic initializer for 'LogWatcher::LogWatcher::staticMetaObject'', COMDAT
; File d:\builder\c++\logwatcher\64bit version\v1.3\logwatcher\logwatcher\x64\release\moc\moc_logwatcher.cpp
; Line 139
	mov	rax, QWORD PTR __imp_?staticMetaObject@QMainWindow@@2UQMetaObject@@B
	mov	QWORD PTR ?staticMetaObject@LogWatcher@1@2UQMetaObject@@B, rax
; Line 144
	ret	0
??__E?staticMetaObject@LogWatcher@1@2UQMetaObject@@B@@YAXXZ ENDP ; `dynamic initializer for 'LogWatcher::LogWatcher::staticMetaObject''
text$di	ENDS
; Function compile flags: /Ogtpy
;	COMDAT ?qt_static_metacall@LogWatcher@1@CAXPEAVQObject@@W4Call@QMetaObject@@HPEAPEAX@Z
_TEXT	SEGMENT
_o$ = 8
_c$ = 16
_id$ = 24
_a$ = 32
?qt_static_metacall@LogWatcher@1@CAXPEAVQObject@@W4Call@QMetaObject@@HPEAPEAX@Z PROC ; LogWatcher::LogWatcher::qt_static_metacall, COMDAT
; File d:\builder\c++\logwatcher\64bit version\v1.3\logwatcher\logwatcher\x64\release\moc\moc_logwatcher.cpp
; Line 116
	test	edx, edx
	jne	SHORT $LN18@qt_static_
; Line 119
	cmp	r8d, 12
	ja	SHORT $LN18@qt_static_
	movsxd	rax, r8d
	lea	r8, OFFSET FLAT:__ImageBase
	mov	edx, DWORD PTR $LN20@qt_static_[r8+rax*4]
	add	rdx, r8
	jmp	rdx
$LN5@qt_static_:
; Line 120
	jmp	?on_pushButtonOpen_clicked@LogWatcher@1@AEAAXXZ ; LogWatcher::LogWatcher::on_pushButtonOpen_clicked
$LN6@qt_static_:
; Line 121
	mov	rax, QWORD PTR [r9+8]
	mov	edx, DWORD PTR [rax]
	jmp	?appendFileData@LogWatcher@1@AEAAXH@Z	; LogWatcher::LogWatcher::appendFileData
$LN7@qt_static_:
; Line 122
	mov	rax, QWORD PTR [r9+8]
	mov	edx, DWORD PTR [rax]
	jmp	?on_tabWidget_tabCloseReguested@LogWatcher@1@AEAAXH@Z ; LogWatcher::LogWatcher::on_tabWidget_tabCloseReguested
$LN8@qt_static_:
; Line 123
	mov	rax, QWORD PTR [r9+8]
	mov	edx, DWORD PTR [rax]
	jmp	?on_tabWidget_tabCloseReguestedSearch@LogWatcher@1@AEAAXH@Z ; LogWatcher::LogWatcher::on_tabWidget_tabCloseReguestedSearch
$LN9@qt_static_:
; Line 124
	jmp	?on_pushButtonNext_clicked@LogWatcher@1@AEAAXXZ ; LogWatcher::LogWatcher::on_pushButtonNext_clicked
$LN10@qt_static_:
; Line 125
	jmp	?on_pushButtonIntellect_clicked@LogWatcher@1@AEAAXXZ ; LogWatcher::LogWatcher::on_pushButtonIntellect_clicked
$LN11@qt_static_:
; Line 126
	jmp	?on_pushButtonOpenSearch_clicked@LogWatcher@1@AEAAXXZ ; LogWatcher::LogWatcher::on_pushButtonOpenSearch_clicked
$LN12@qt_static_:
; Line 127
	jmp	?on_pushButtonEditData_clicked@LogWatcher@1@AEAAXXZ ; LogWatcher::LogWatcher::on_pushButtonEditData_clicked
$LN13@qt_static_:
; Line 128
	jmp	?on_pushButtonAnalyz_clicked@LogWatcher@1@AEAAXXZ ; LogWatcher::LogWatcher::on_pushButtonAnalyz_clicked
$LN14@qt_static_:
; Line 129
	jmp	?slotCreateRecord@LogWatcher@1@AEAAXXZ	; LogWatcher::LogWatcher::slotCreateRecord
$LN15@qt_static_:
; Line 130
	jmp	?slotFindRecord@LogWatcher@1@AEAAXXZ	; LogWatcher::LogWatcher::slotFindRecord
$LN16@qt_static_:
; Line 131
	mov	rdx, QWORD PTR [r9+8]
	jmp	?slotCustomMenuRequested@LogWatcher@1@AEAAXAEBVQPoint@@@Z ; LogWatcher::LogWatcher::slotCustomMenuRequested
$LN17@qt_static_:
; Line 132
	mov	rdx, QWORD PTR [r9+8]
	jmp	?slotCustomMenuRequestedSearch@LogWatcher@1@AEAAXAEBVQPoint@@@Z ; LogWatcher::LogWatcher::slotCustomMenuRequestedSearch
$LN18@qt_static_:
; Line 136
	ret	0
	npad	3
$LN20@qt_static_:
	DD	$LN5@qt_static_
	DD	$LN6@qt_static_
	DD	$LN7@qt_static_
	DD	$LN8@qt_static_
	DD	$LN9@qt_static_
	DD	$LN10@qt_static_
	DD	$LN11@qt_static_
	DD	$LN12@qt_static_
	DD	$LN13@qt_static_
	DD	$LN14@qt_static_
	DD	$LN15@qt_static_
	DD	$LN16@qt_static_
	DD	$LN17@qt_static_
?qt_static_metacall@LogWatcher@1@CAXPEAVQObject@@W4Call@QMetaObject@@HPEAPEAX@Z ENDP ; LogWatcher::LogWatcher::qt_static_metacall
_TEXT	ENDS
; Function compile flags: /Ogtpy
;	COMDAT ?qt_metacall@LogWatcher@1@UEAAHW4Call@QMetaObject@@HPEAPEAX@Z
_TEXT	SEGMENT
this$ = 48
_c$ = 56
_id$ = 64
_a$ = 72
?qt_metacall@LogWatcher@1@UEAAHW4Call@QMetaObject@@HPEAPEAX@Z PROC ; LogWatcher::LogWatcher::qt_metacall, COMDAT
; File d:\builder\c++\logwatcher\64bit version\v1.3\logwatcher\logwatcher\x64\release\moc\moc_logwatcher.cpp
; Line 162
$LN10:
	mov	QWORD PTR [rsp+8], rbx
	mov	QWORD PTR [rsp+16], rbp
	mov	QWORD PTR [rsp+24], rsi
	push	rdi
	sub	rsp, 32					; 00000020H
	mov	rsi, r9
	mov	edi, edx
	mov	rbp, rcx
; Line 163
	call	QWORD PTR __imp_?qt_metacall@QMainWindow@@UEAAHW4Call@QMetaObject@@HPEAPEAX@Z
	mov	ebx, eax
; Line 164
	test	eax, eax
	js	SHORT $LN1@qt_metacal
; Line 166
	test	edi, edi
	jne	SHORT $LN3@qt_metacal
; Line 167
	cmp	eax, 13
	jge	SHORT $LN7@qt_metacal
; Line 168
	mov	r9, rsi
	mov	r8d, eax
	xor	edx, edx
	mov	rcx, rbp
	call	?qt_static_metacall@LogWatcher@1@CAXPEAVQObject@@W4Call@QMetaObject@@HPEAPEAX@Z ; LogWatcher::LogWatcher::qt_static_metacall
; Line 169
	jmp	SHORT $LN7@qt_metacal
$LN3@qt_metacal:
; Line 170
	cmp	edi, 12
	jne	SHORT $LN6@qt_metacal
; Line 171
	cmp	ebx, 13
	jge	SHORT $LN7@qt_metacal
; Line 172
	mov	rax, QWORD PTR [rsi]
	mov	DWORD PTR [rax], -1
$LN7@qt_metacal:
; Line 175
	sub	ebx, 13
$LN6@qt_metacal:
	mov	eax, ebx
$LN1@qt_metacal:
; Line 176
	mov	rbx, QWORD PTR [rsp+48]
	mov	rbp, QWORD PTR [rsp+56]
	mov	rsi, QWORD PTR [rsp+64]
	add	rsp, 32					; 00000020H
	pop	rdi
	ret	0
?qt_metacall@LogWatcher@1@UEAAHW4Call@QMetaObject@@HPEAPEAX@Z ENDP ; LogWatcher::LogWatcher::qt_metacall
_TEXT	ENDS
; Function compile flags: /Ogtpy
;	COMDAT ?qt_metacast@LogWatcher@1@UEAAPEAXPEBD@Z
_TEXT	SEGMENT
this$ = 8
_clname$ = 16
?qt_metacast@LogWatcher@1@UEAAPEAXPEBD@Z PROC		; LogWatcher::LogWatcher::qt_metacast, COMDAT
; File d:\builder\c++\logwatcher\64bit version\v1.3\logwatcher\logwatcher\x64\release\moc\moc_logwatcher.cpp
; Line 154
	mov	r9, rdx
	mov	r10, rcx
; Line 155
	test	rdx, rdx
	jne	SHORT $LN2@qt_metacas
	xor	eax, eax
; Line 159
	ret	0
$LN2@qt_metacas:
; Line 156
	lea	r8, OFFSET FLAT:?qt_meta_stringdata_LogWatcher__LogWatcher@@3Uqt_meta_stringdata_LogWatcher__LogWatcher_t@@B+408
	mov	rax, r9
	sub	r8, r9
	npad	5
$LL5@qt_metacas:
	movzx	edx, BYTE PTR [rax]
	movzx	ecx, BYTE PTR [rax+r8]
	sub	edx, ecx
	jne	SHORT $LN6@qt_metacas
	inc	rax
	test	ecx, ecx
	jne	SHORT $LL5@qt_metacas
$LN6@qt_metacas:
	test	edx, edx
	jne	SHORT $LN3@qt_metacas
; Line 157
	mov	rax, r10
; Line 159
	ret	0
$LN3@qt_metacas:
; Line 158
	mov	rdx, r9
	mov	rcx, r10
	rex_jmp	QWORD PTR __imp_?qt_metacast@QMainWindow@@UEAAPEAXPEBD@Z
?qt_metacast@LogWatcher@1@UEAAPEAXPEBD@Z ENDP		; LogWatcher::LogWatcher::qt_metacast
_TEXT	ENDS
; Function compile flags: /Ogtpy
;	COMDAT ?metaObject@LogWatcher@1@UEBAPEBUQMetaObject@@XZ
_TEXT	SEGMENT
this$ = 8
?metaObject@LogWatcher@1@UEBAPEBUQMetaObject@@XZ PROC	; LogWatcher::LogWatcher::metaObject, COMDAT
; File d:\builder\c++\logwatcher\64bit version\v1.3\logwatcher\logwatcher\x64\release\moc\moc_logwatcher.cpp
; Line 150
	mov	rcx, QWORD PTR [rcx+8]
	cmp	QWORD PTR [rcx+40], 0
	je	SHORT $LN3@metaObject
	rex_jmp	QWORD PTR __imp_?dynamicMetaObject@QObjectData@@QEBAPEAUQMetaObject@@XZ
$LN3@metaObject:
	lea	rax, OFFSET FLAT:?staticMetaObject@LogWatcher@1@2UQMetaObject@@B ; LogWatcher::LogWatcher::staticMetaObject
; Line 151
	ret	0
?metaObject@LogWatcher@1@UEBAPEBUQMetaObject@@XZ ENDP	; LogWatcher::LogWatcher::metaObject
_TEXT	ENDS
; Function compile flags: /Ogtpy
;	COMDAT ??C?$QScopedPointer@VQObjectData@@U?$QScopedPointerDeleter@VQObjectData@@@@@@QEBAPEAVQObjectData@@XZ
_TEXT	SEGMENT
this$ = 8
??C?$QScopedPointer@VQObjectData@@U?$QScopedPointerDeleter@VQObjectData@@@@@@QEBAPEAVQObjectData@@XZ PROC ; QScopedPointer<QObjectData,QScopedPointerDeleter<QObjectData> >::operator->, COMDAT
; File c:\qt\qt5.13.0\5.13.0\msvc2017_64\include\qtcore\qscopedpointer.h
; Line 118
	mov	rax, QWORD PTR [rcx]
; Line 119
	ret	0
??C?$QScopedPointer@VQObjectData@@U?$QScopedPointerDeleter@VQObjectData@@@@@@QEBAPEAVQObjectData@@XZ ENDP ; QScopedPointer<QObjectData,QScopedPointerDeleter<QObjectData> >::operator->
_TEXT	ENDS
END
