; Listing generated by Microsoft (R) Optimizing Compiler Version 19.16.27034.0 

include listing.inc

INCLUDELIB MSVCRT
INCLUDELIB OLDNAMES

EXTRN	__imp_?staticMetaObject@QDialog@@2UQMetaObject@@B:BYTE
CONST	SEGMENT
?qt_meta_stringdata_LogWatcher__DlgComment@@3Uqt_meta_stringdata_LogWatcher__DlgComment_t@@B DD 0ffffffffH ; qt_meta_stringdata_LogWatcher__DlgComment
	DD	016H
	DD	00H
	ORG $+4
	DQ	0000000000000060H
	DD	0ffffffffH
	DD	0bH
	DD	00H
	ORG $+4
	DQ	000000000000005fH
	DD	0ffffffffH
	DD	00H
	DD	00H
	ORG $+4
	DQ	0000000000000053H
	DD	0ffffffffH
	DD	015H
	DD	00H
	ORG $+4
	DQ	000000000000003cH
	DB	04cH
	DB	06fH
	DB	067H
	DB	057H
	DB	061H
	DB	074H
	DB	063H
	DB	068H
	DB	065H
	DB	072H
	DB	03aH
	DB	03aH
	DB	044H
	DB	06cH
	DB	067H
	DB	043H
	DB	06fH
	DB	06dH
	DB	06dH
	DB	065H
	DB	06eH
	DB	074H
	DB	00H
	DB	073H
	DB	069H
	DB	067H
	DB	06eH
	DB	061H
	DB	06cH
	DB	052H
	DB	065H
	DB	061H
	DB	064H
	DB	079H
	DB	00H
	DB	00H
	DB	06fH
	DB	06eH
	DB	05fH
	DB	062H
	DB	075H
	DB	074H
	DB	074H
	DB	06fH
	DB	06eH
	DB	042H
	DB	06fH
	DB	078H
	DB	05fH
	DB	061H
	DB	063H
	DB	063H
	DB	065H
	DB	070H
	DB	074H
	DB	065H
	DB	064H
	DB	00H
	ORG $+6
?qt_meta_data_LogWatcher__DlgComment@@3QBIB DD 08H	; qt_meta_data_LogWatcher__DlgComment
	DD	00H
	DD	00H
	DD	00H
	DD	02H
	DD	0eH
	DD	00H
	DD	00H
	DD	00H
	DD	00H
	DD	00H
	DD	00H
	DD	00H
	DD	01H
	DD	01H
	DD	00H
	DD	018H
	DD	02H
	DD	06H
	DD	03H
	DD	00H
	DD	019H
	DD	02H
	DD	08H
	DD	02bH
	DD	02bH
	DD	00H
CONST	ENDS
PUBLIC	?metaObject@DlgComment@LogWatcher@@UEBAPEBUQMetaObject@@XZ ; LogWatcher::DlgComment::metaObject
PUBLIC	?qt_metacast@DlgComment@LogWatcher@@UEAAPEAXPEBD@Z ; LogWatcher::DlgComment::qt_metacast
PUBLIC	?qt_metacall@DlgComment@LogWatcher@@UEAAHW4Call@QMetaObject@@HPEAPEAX@Z ; LogWatcher::DlgComment::qt_metacall
PUBLIC	?qt_static_metacall@DlgComment@LogWatcher@@CAXPEAVQObject@@W4Call@QMetaObject@@HPEAPEAX@Z ; LogWatcher::DlgComment::qt_static_metacall
PUBLIC	?signalReady@DlgComment@LogWatcher@@QEAAXXZ	; LogWatcher::DlgComment::signalReady
PUBLIC	?staticMetaObject@DlgComment@LogWatcher@@2UQMetaObject@@B ; LogWatcher::DlgComment::staticMetaObject
EXTRN	__imp_?activate@QMetaObject@@SAXPEAVQObject@@PEBU1@HPEAPEAX@Z:PROC
EXTRN	__imp_?dynamicMetaObject@QObjectData@@QEBAPEAUQMetaObject@@XZ:PROC
EXTRN	__imp_?qt_metacast@QDialog@@UEAAPEAXPEBD@Z:PROC
EXTRN	__imp_?qt_metacall@QDialog@@UEAAHW4Call@QMetaObject@@HPEAPEAX@Z:PROC
EXTRN	?on_buttonBox_accepted@DlgComment@LogWatcher@@AEAAXXZ:PROC ; LogWatcher::DlgComment::on_buttonBox_accepted
;	COMDAT pdata
pdata	SEGMENT
$pdata$?qt_metacall@DlgComment@LogWatcher@@UEAAHW4Call@QMetaObject@@HPEAPEAX@Z DD imagerel $LN10
	DD	imagerel $LN10+112
	DD	imagerel $unwind$?qt_metacall@DlgComment@LogWatcher@@UEAAHW4Call@QMetaObject@@HPEAPEAX@Z
pdata	ENDS
CRT$XCU	SEGMENT
??staticMetaObject$initializer$@DlgComment@LogWatcher@@2P6AXXZEA@@3P6AXXZEA DQ FLAT:??__E?staticMetaObject@DlgComment@LogWatcher@@2UQMetaObject@@B@@YAXXZ ; ??staticMetaObject$initializer$@DlgComment@LogWatcher@@2P6AXXZEA@@3P6AXXZEA
CRT$XCU	ENDS
_DATA	SEGMENT
?staticMetaObject@DlgComment@LogWatcher@@2UQMetaObject@@B DB 8 DUP(00H) ; LogWatcher::DlgComment::staticMetaObject
	DQ	FLAT:?qt_meta_stringdata_LogWatcher__DlgComment@@3Uqt_meta_stringdata_LogWatcher__DlgComment_t@@B
	DQ	FLAT:?qt_meta_data_LogWatcher__DlgComment@@3QBIB
	DQ	FLAT:?qt_static_metacall@DlgComment@LogWatcher@@CAXPEAVQObject@@W4Call@QMetaObject@@HPEAPEAX@Z
	DQ	0000000000000000H
	DQ	0000000000000000H
_DATA	ENDS
;	COMDAT xdata
xdata	SEGMENT
$unwind$?qt_metacall@DlgComment@LogWatcher@@UEAAHW4Call@QMetaObject@@HPEAPEAX@Z DD 081401H
	DD	086414H
	DD	075414H
	DD	063414H
	DD	070103214H
xdata	ENDS
; Function compile flags: /Ogtpy
;	COMDAT ??__E?staticMetaObject@DlgComment@LogWatcher@@2UQMetaObject@@B@@YAXXZ
text$di	SEGMENT
??__E?staticMetaObject@DlgComment@LogWatcher@@2UQMetaObject@@B@@YAXXZ PROC ; `dynamic initializer for 'LogWatcher::DlgComment::staticMetaObject'', COMDAT
; File d:\builder\c++\logwatcher\64bit version\v1.3\logwatcher\logwatcher\x64\release\moc\moc_dlgcomment.cpp
; Line 98
	mov	rax, QWORD PTR __imp_?staticMetaObject@QDialog@@2UQMetaObject@@B
	mov	QWORD PTR ?staticMetaObject@DlgComment@LogWatcher@@2UQMetaObject@@B, rax
; Line 103
	ret	0
??__E?staticMetaObject@DlgComment@LogWatcher@@2UQMetaObject@@B@@YAXXZ ENDP ; `dynamic initializer for 'LogWatcher::DlgComment::staticMetaObject''
text$di	ENDS
; Function compile flags: /Ogtpy
;	COMDAT ?signalReady@DlgComment@LogWatcher@@QEAAXXZ
_TEXT	SEGMENT
this$ = 8
?signalReady@DlgComment@LogWatcher@@QEAAXXZ PROC	; LogWatcher::DlgComment::signalReady, COMDAT
; File d:\builder\c++\logwatcher\64bit version\v1.3\logwatcher\logwatcher\x64\release\moc\moc_dlgcomment.cpp
; Line 140
	xor	r9d, r9d
	lea	rdx, OFFSET FLAT:?staticMetaObject@DlgComment@LogWatcher@@2UQMetaObject@@B ; LogWatcher::DlgComment::staticMetaObject
	xor	r8d, r8d
	rex_jmp	QWORD PTR __imp_?activate@QMetaObject@@SAXPEAVQObject@@PEBU1@HPEAPEAX@Z
?signalReady@DlgComment@LogWatcher@@QEAAXXZ ENDP	; LogWatcher::DlgComment::signalReady
_TEXT	ENDS
; Function compile flags: /Ogtpy
;	COMDAT ?qt_static_metacall@DlgComment@LogWatcher@@CAXPEAVQObject@@W4Call@QMetaObject@@HPEAPEAX@Z
_TEXT	SEGMENT
_o$ = 8
_c$ = 16
_id$ = 24
_a$ = 32
?qt_static_metacall@DlgComment@LogWatcher@@CAXPEAVQObject@@W4Call@QMetaObject@@HPEAPEAX@Z PROC ; LogWatcher::DlgComment::qt_static_metacall, COMDAT
; File d:\builder\c++\logwatcher\64bit version\v1.3\logwatcher\logwatcher\x64\release\moc\moc_dlgcomment.cpp
; Line 76
	test	edx, edx
	jne	SHORT $LN4@qt_static_
; Line 79
	test	r8d, r8d
	je	SHORT $LN6@qt_static_
	cmp	r8d, 1
	jne	SHORT $LN10@qt_static_
; Line 81
	jmp	?on_buttonBox_accepted@DlgComment@LogWatcher@@AEAAXXZ ; LogWatcher::DlgComment::on_buttonBox_accepted
$LN6@qt_static_:
; Line 140
	xor	r9d, r9d
	lea	rdx, OFFSET FLAT:?staticMetaObject@DlgComment@LogWatcher@@2UQMetaObject@@B ; LogWatcher::DlgComment::staticMetaObject
	xor	r8d, r8d
	rex_jmp	QWORD PTR __imp_?activate@QMetaObject@@SAXPEAVQObject@@PEBU1@HPEAPEAX@Z
$LN4@qt_static_:
; Line 84
	cmp	edx, 10
	jne	SHORT $LN10@qt_static_
; Line 88
	mov	rax, QWORD PTR [r9+8]
	lea	r8, OFFSET FLAT:?signalReady@DlgComment@LogWatcher@@QEAAXXZ ; LogWatcher::DlgComment::signalReady
	mov	rdx, QWORD PTR [r9]
	mov	rcx, QWORD PTR [rax]
	cmp	rcx, r8
	jne	SHORT $LN10@qt_static_
	test	rcx, rcx
	je	SHORT $LN17@qt_static_
	cmp	DWORD PTR [rax+8], 0
	jne	SHORT $LN10@qt_static_
$LN17@qt_static_:
; Line 89
	mov	DWORD PTR [rdx], 0
$LN10@qt_static_:
; Line 95
	ret	0
?qt_static_metacall@DlgComment@LogWatcher@@CAXPEAVQObject@@W4Call@QMetaObject@@HPEAPEAX@Z ENDP ; LogWatcher::DlgComment::qt_static_metacall
_TEXT	ENDS
; Function compile flags: /Ogtpy
;	COMDAT ?qt_metacall@DlgComment@LogWatcher@@UEAAHW4Call@QMetaObject@@HPEAPEAX@Z
_TEXT	SEGMENT
this$ = 48
_c$ = 56
_id$ = 64
_a$ = 72
?qt_metacall@DlgComment@LogWatcher@@UEAAHW4Call@QMetaObject@@HPEAPEAX@Z PROC ; LogWatcher::DlgComment::qt_metacall, COMDAT
; File d:\builder\c++\logwatcher\64bit version\v1.3\logwatcher\logwatcher\x64\release\moc\moc_dlgcomment.cpp
; Line 121
$LN10:
	mov	QWORD PTR [rsp+8], rbx
	mov	QWORD PTR [rsp+16], rbp
	mov	QWORD PTR [rsp+24], rsi
	push	rdi
	sub	rsp, 32					; 00000020H
	mov	rsi, r9
	mov	edi, edx
	mov	rbp, rcx
; Line 122
	call	QWORD PTR __imp_?qt_metacall@QDialog@@UEAAHW4Call@QMetaObject@@HPEAPEAX@Z
	mov	ebx, eax
; Line 123
	test	eax, eax
	js	SHORT $LN1@qt_metacal
; Line 125
	test	edi, edi
	jne	SHORT $LN3@qt_metacal
; Line 126
	cmp	eax, 2
	jge	SHORT $LN7@qt_metacal
; Line 127
	mov	r9, rsi
	mov	r8d, eax
	xor	edx, edx
	mov	rcx, rbp
	call	?qt_static_metacall@DlgComment@LogWatcher@@CAXPEAVQObject@@W4Call@QMetaObject@@HPEAPEAX@Z ; LogWatcher::DlgComment::qt_static_metacall
; Line 128
	jmp	SHORT $LN7@qt_metacal
$LN3@qt_metacal:
; Line 129
	cmp	edi, 12
	jne	SHORT $LN6@qt_metacal
; Line 130
	cmp	ebx, 2
	jge	SHORT $LN7@qt_metacal
; Line 131
	mov	rax, QWORD PTR [rsi]
	mov	DWORD PTR [rax], -1
$LN7@qt_metacal:
; Line 134
	sub	ebx, 2
$LN6@qt_metacal:
	mov	eax, ebx
$LN1@qt_metacal:
; Line 135
	mov	rbx, QWORD PTR [rsp+48]
	mov	rbp, QWORD PTR [rsp+56]
	mov	rsi, QWORD PTR [rsp+64]
	add	rsp, 32					; 00000020H
	pop	rdi
	ret	0
?qt_metacall@DlgComment@LogWatcher@@UEAAHW4Call@QMetaObject@@HPEAPEAX@Z ENDP ; LogWatcher::DlgComment::qt_metacall
_TEXT	ENDS
; Function compile flags: /Ogtpy
;	COMDAT ?qt_metacast@DlgComment@LogWatcher@@UEAAPEAXPEBD@Z
_TEXT	SEGMENT
this$ = 8
_clname$ = 16
?qt_metacast@DlgComment@LogWatcher@@UEAAPEAXPEBD@Z PROC	; LogWatcher::DlgComment::qt_metacast, COMDAT
; File d:\builder\c++\logwatcher\64bit version\v1.3\logwatcher\logwatcher\x64\release\moc\moc_dlgcomment.cpp
; Line 113
	mov	r9, rdx
	mov	r10, rcx
; Line 114
	test	rdx, rdx
	jne	SHORT $LN2@qt_metacas
	xor	eax, eax
; Line 118
	ret	0
$LN2@qt_metacas:
; Line 115
	lea	r8, OFFSET FLAT:?qt_meta_stringdata_LogWatcher__DlgComment@@3Uqt_meta_stringdata_LogWatcher__DlgComment_t@@B+96
	mov	rax, r9
	sub	r8, r9
	npad	5
$LL5@qt_metacas:
	movzx	edx, BYTE PTR [rax]
	movzx	ecx, BYTE PTR [rax+r8]
	sub	edx, ecx
	jne	SHORT $LN6@qt_metacas
	inc	rax
	test	ecx, ecx
	jne	SHORT $LL5@qt_metacas
$LN6@qt_metacas:
	test	edx, edx
	jne	SHORT $LN3@qt_metacas
; Line 116
	mov	rax, r10
; Line 118
	ret	0
$LN3@qt_metacas:
; Line 117
	mov	rdx, r9
	mov	rcx, r10
	rex_jmp	QWORD PTR __imp_?qt_metacast@QDialog@@UEAAPEAXPEBD@Z
?qt_metacast@DlgComment@LogWatcher@@UEAAPEAXPEBD@Z ENDP	; LogWatcher::DlgComment::qt_metacast
_TEXT	ENDS
; Function compile flags: /Ogtpy
;	COMDAT ?metaObject@DlgComment@LogWatcher@@UEBAPEBUQMetaObject@@XZ
_TEXT	SEGMENT
this$ = 8
?metaObject@DlgComment@LogWatcher@@UEBAPEBUQMetaObject@@XZ PROC ; LogWatcher::DlgComment::metaObject, COMDAT
; File d:\builder\c++\logwatcher\64bit version\v1.3\logwatcher\logwatcher\x64\release\moc\moc_dlgcomment.cpp
; Line 109
	mov	rcx, QWORD PTR [rcx+8]
	cmp	QWORD PTR [rcx+40], 0
	je	SHORT $LN3@metaObject
	rex_jmp	QWORD PTR __imp_?dynamicMetaObject@QObjectData@@QEBAPEAUQMetaObject@@XZ
$LN3@metaObject:
	lea	rax, OFFSET FLAT:?staticMetaObject@DlgComment@LogWatcher@@2UQMetaObject@@B ; LogWatcher::DlgComment::staticMetaObject
; Line 110
	ret	0
?metaObject@DlgComment@LogWatcher@@UEBAPEBUQMetaObject@@XZ ENDP ; LogWatcher::DlgComment::metaObject
_TEXT	ENDS
; Function compile flags: /Ogtpy
;	COMDAT ??C?$QScopedPointer@VQObjectData@@U?$QScopedPointerDeleter@VQObjectData@@@@@@QEBAPEAVQObjectData@@XZ
_TEXT	SEGMENT
this$ = 8
??C?$QScopedPointer@VQObjectData@@U?$QScopedPointerDeleter@VQObjectData@@@@@@QEBAPEAVQObjectData@@XZ PROC ; QScopedPointer<QObjectData,QScopedPointerDeleter<QObjectData> >::operator->, COMDAT
; File c:\qt\qt5.13.0\5.13.0\msvc2017_64\include\qtcore\qscopedpointer.h
; Line 118
	mov	rax, QWORD PTR [rcx]
; Line 119
	ret	0
??C?$QScopedPointer@VQObjectData@@U?$QScopedPointerDeleter@VQObjectData@@@@@@QEBAPEAVQObjectData@@XZ ENDP ; QScopedPointer<QObjectData,QScopedPointerDeleter<QObjectData> >::operator->
_TEXT	ENDS
END
