; Listing generated by Microsoft (R) Optimizing Compiler Version 19.16.27034.0 

include listing.inc

INCLUDELIB MSVCRTD
INCLUDELIB OLDNAMES

CONST	SEGMENT
$SG180304 DB	'c:\qt\qt5.13.0\5.13.0\msvc2017_64\include\qtcore\qmetaty'
	DB	'pe.h', 00H
	ORG $+3
$SG180305 DB	'qRegisterNormalizedMetaType was called with a not normal'
	DB	'ized type name, please call qRegisterMetaType instead.', 00H
	ORG $+1
$SG180306 DB	'qRegisterNormalizedMetaType', 00H
	ORG $+4
$SG180665 DB	'c:\qt\qt5.13.0\5.13.0\msvc2017_64\include\qtcore\qmetaty'
	DB	'pe.h', 00H
	ORG $+3
$SG180666 DB	'qRegisterNormalizedMetaType was called with a not normal'
	DB	'ized type name, please call qRegisterMetaType instead.', 00H
	ORG $+1
$SG180667 DB	'qRegisterNormalizedMetaType', 00H
	ORG $+4
$SG174444 DB	'c:\qt\qt5.13.0\5.13.0\msvc2017_64\include\qtcore\qmetaty'
	DB	'pe.h', 00H
	ORG $+3
$SG174445 DB	'qRegisterNormalizedMetaType was called with a not normal'
	DB	'ized type name, please call qRegisterMetaType instead.', 00H
	ORG $+1
$SG174446 DB	'qRegisterNormalizedMetaType', 00H
	ORG $+4
$SG177563 DB	'c:\qt\qt5.13.0\5.13.0\msvc2017_64\include\qtcore\qmetaty'
	DB	'pe.h', 00H
	ORG $+3
$SG177564 DB	'qRegisterNormalizedMetaType was called with a not normal'
	DB	'ized type name, please call qRegisterMetaType instead.', 00H
	ORG $+1
$SG177565 DB	'qRegisterNormalizedMetaType', 00H
	ORG $+4
$SG177924 DB	'c:\qt\qt5.13.0\5.13.0\msvc2017_64\include\qtcore\qmetaty'
	DB	'pe.h', 00H
	ORG $+3
$SG177925 DB	'qRegisterNormalizedMetaType was called with a not normal'
	DB	'ized type name, please call qRegisterMetaType instead.', 00H
	ORG $+1
$SG177926 DB	'qRegisterNormalizedMetaType', 00H
	ORG $+4
$SG178285 DB	'c:\qt\qt5.13.0\5.13.0\msvc2017_64\include\qtcore\qmetaty'
	DB	'pe.h', 00H
	ORG $+3
$SG178286 DB	'qRegisterNormalizedMetaType was called with a not normal'
	DB	'ized type name, please call qRegisterMetaType instead.', 00H
	ORG $+1
$SG178287 DB	'qRegisterNormalizedMetaType', 00H
	ORG $+4
?qt_meta_stringdata_LogWatcher__DataWidgetMapper@@3Uqt_meta_stringdata_LogWatcher__DataWidgetMapper_t@@B DD 0ffffffffH ; qt_meta_stringdata_LogWatcher__DataWidgetMapper
	DD	01cH
	DD	00H
	ORG $+4
	DQ	00000000000000a8H
	DD	0ffffffffH
	DD	010H
	DD	00H
	ORG $+4
	DQ	00000000000000adH
	DD	0ffffffffH
	DD	00H
	DD	00H
	ORG $+4
	DQ	00000000000000a6H
	DD	0ffffffffH
	DD	0eH
	DD	00H
	ORG $+4
	DQ	000000000000008fH
	DD	0ffffffffH
	DD	010H
	DD	00H
	ORG $+4
	DQ	0000000000000086H
	DD	0ffffffffH
	DD	017H
	DD	00H
	ORG $+4
	DQ	000000000000007fH
	DD	0ffffffffH
	DD	03H
	DD	00H
	ORG $+4
	DQ	000000000000007fH
	DB	04cH
	DB	06fH
	DB	067H
	DB	057H
	DB	061H
	DB	074H
	DB	063H
	DB	068H
	DB	065H
	DB	072H
	DB	03aH
	DB	03aH
	DB	044H
	DB	061H
	DB	074H
	DB	061H
	DB	057H
	DB	069H
	DB	064H
	DB	067H
	DB	065H
	DB	074H
	DB	04dH
	DB	061H
	DB	070H
	DB	070H
	DB	065H
	DB	072H
	DB	00H
	DB	073H
	DB	06cH
	DB	06fH
	DB	074H
	DB	055H
	DB	070H
	DB	064H
	DB	061H
	DB	074H
	DB	065H
	DB	04dH
	DB	06fH
	DB	064H
	DB	065H
	DB	06cH
	DB	073H
	DB	00H
	DB	00H
	DB	073H
	DB	06cH
	DB	06fH
	DB	074H
	DB	045H
	DB	064H
	DB	069H
	DB	074H
	DB	052H
	DB	065H
	DB	063H
	DB	06fH
	DB	072H
	DB	064H
	DB	00H
	DB	073H
	DB	06cH
	DB	06fH
	DB	074H
	DB	052H
	DB	065H
	DB	06dH
	DB	06fH
	DB	076H
	DB	065H
	DB	052H
	DB	065H
	DB	063H
	DB	06fH
	DB	072H
	DB	064H
	DB	00H
	DB	073H
	DB	06cH
	DB	06fH
	DB	074H
	DB	043H
	DB	075H
	DB	073H
	DB	074H
	DB	06fH
	DB	06dH
	DB	04dH
	DB	065H
	DB	06eH
	DB	075H
	DB	052H
	DB	065H
	DB	071H
	DB	075H
	DB	065H
	DB	073H
	DB	074H
	DB	065H
	DB	064H
	DB	00H
	DB	070H
	DB	06fH
	DB	073H
	DB	00H
	ORG $+5
	ORG $+8
?qt_meta_data_LogWatcher__DataWidgetMapper@@3QBIB DD 08H ; qt_meta_data_LogWatcher__DataWidgetMapper
	DD	00H
	DD	00H
	DD	00H
	DD	04H
	DD	0eH
	DD	00H
	DD	00H
	DD	00H
	DD	00H
	DD	00H
	DD	00H
	DD	00H
	DD	00H
	DD	01H
	DD	00H
	DD	022H
	DD	02H
	DD	08H
	DD	03H
	DD	00H
	DD	023H
	DD	02H
	DD	08H
	DD	04H
	DD	00H
	DD	024H
	DD	02H
	DD	08H
	DD	05H
	DD	01H
	DD	025H
	DD	02H
	DD	08H
	DD	02bH
	DD	02bH
	DD	02bH
	DD	02bH
	DD	019H
	DD	06H
	DD	00H
	ORG $+4
$SG179128 DB	'c:\qt\qt5.13.0\5.13.0\msvc2017_64\include\qtcore\qmetaty'
	DB	'pe.h', 00H
	ORG $+11
$SG179129 DB	'qRegisterNormalizedMetaType was called with a not normal'
	DB	'ized type name, please call qRegisterMetaType instead.', 00H
	ORG $+1
$SG179130 DB	'qRegisterNormalizedMetaType', 00H
	ORG $+4
$SG179489 DB	'c:\qt\qt5.13.0\5.13.0\msvc2017_64\include\qtcore\qmetaty'
	DB	'pe.h', 00H
	ORG $+3
$SG179490 DB	'qRegisterNormalizedMetaType was called with a not normal'
	DB	'ized type name, please call qRegisterMetaType instead.', 00H
	ORG $+1
$SG179491 DB	'qRegisterNormalizedMetaType', 00H
	ORG $+4
$SG179943 DB	'c:\qt\qt5.13.0\5.13.0\msvc2017_64\include\qtcore\qmetaty'
	DB	'pe.h', 00H
	ORG $+3
$SG179944 DB	'qRegisterNormalizedMetaType was called with a not normal'
	DB	'ized type name, please call qRegisterMetaType instead.', 00H
	ORG $+1
$SG179945 DB	'qRegisterNormalizedMetaType', 00H
CONST	ENDS
PUBLIC	?__empty_global_delete@@YAXPEAX@Z		; __empty_global_delete
PUBLIC	?__empty_global_delete@@YAXPEAX_K@Z		; __empty_global_delete
PUBLIC	??C?$QScopedPointer@VQObjectData@@U?$QScopedPointerDeleter@VQObjectData@@@@@@QEBAPEAVQObjectData@@XZ ; QScopedPointer<QObjectData,QScopedPointerDeleter<QObjectData> >::operator->
PUBLIC	?metaObject@DataWidgetMapper@LogWatcher@@UEBAPEBUQMetaObject@@XZ ; LogWatcher::DataWidgetMapper::metaObject
PUBLIC	?qt_metacast@DataWidgetMapper@LogWatcher@@UEAAPEAXPEBD@Z ; LogWatcher::DataWidgetMapper::qt_metacast
PUBLIC	?qt_metacall@DataWidgetMapper@LogWatcher@@UEAAHW4Call@QMetaObject@@HPEAPEAX@Z ; LogWatcher::DataWidgetMapper::qt_metacall
PUBLIC	?qt_static_metacall@DataWidgetMapper@LogWatcher@@CAXPEAVQObject@@W4Call@QMetaObject@@HPEAPEAX@Z ; LogWatcher::DataWidgetMapper::qt_static_metacall
PUBLIC	?staticMetaObject@DataWidgetMapper@LogWatcher@@2UQMetaObject@@B ; LogWatcher::DataWidgetMapper::staticMetaObject
EXTRN	strcmp:PROC
EXTRN	__imp_?dynamicMetaObject@QObjectData@@QEBAPEAUQMetaObject@@XZ:PROC
EXTRN	__imp_?qt_metacast@QWidget@@UEAAPEAXPEBD@Z:PROC
EXTRN	__imp_?qt_metacall@QWidget@@UEAAHW4Call@QMetaObject@@HPEAPEAX@Z:PROC
EXTRN	?slotUpdateModels@DataWidgetMapper@LogWatcher@@AEAAXXZ:PROC ; LogWatcher::DataWidgetMapper::slotUpdateModels
EXTRN	?slotEditRecord@DataWidgetMapper@LogWatcher@@AEAAXXZ:PROC ; LogWatcher::DataWidgetMapper::slotEditRecord
EXTRN	?slotRemoveRecord@DataWidgetMapper@LogWatcher@@AEAAXXZ:PROC ; LogWatcher::DataWidgetMapper::slotRemoveRecord
EXTRN	?slotCustomMenuRequested@DataWidgetMapper@LogWatcher@@AEAAXAEBVQPoint@@@Z:PROC ; LogWatcher::DataWidgetMapper::slotCustomMenuRequested
EXTRN	__imp_?staticMetaObject@QWidget@@2UQMetaObject@@B:BYTE
_BSS	SEGMENT
?staticMetaObject@DataWidgetMapper@LogWatcher@@2UQMetaObject@@B DB 030H DUP (?) ; LogWatcher::DataWidgetMapper::staticMetaObject
_BSS	ENDS
pdata	SEGMENT
$pdata$?metaObject@DataWidgetMapper@LogWatcher@@UEBAPEBUQMetaObject@@XZ DD imagerel $LN5
	DD	imagerel $LN5+88
	DD	imagerel $unwind$?metaObject@DataWidgetMapper@LogWatcher@@UEBAPEBUQMetaObject@@XZ
$pdata$?qt_metacast@DataWidgetMapper@LogWatcher@@UEAAPEAXPEBD@Z DD imagerel $LN5
	DD	imagerel $LN5+75
	DD	imagerel $unwind$?qt_metacast@DataWidgetMapper@LogWatcher@@UEAAPEAXPEBD@Z
$pdata$?qt_metacall@DataWidgetMapper@LogWatcher@@UEAAHW4Call@QMetaObject@@HPEAPEAX@Z DD imagerel $LN9
	DD	imagerel $LN9+174
	DD	imagerel $unwind$?qt_metacall@DataWidgetMapper@LogWatcher@@UEAAHW4Call@QMetaObject@@HPEAPEAX@Z
$pdata$?qt_static_metacall@DataWidgetMapper@LogWatcher@@CAXPEAVQObject@@W4Call@QMetaObject@@HPEAPEAX@Z DD imagerel $LN11
	DD	imagerel $LN11+147
	DD	imagerel $unwind$?qt_static_metacall@DataWidgetMapper@LogWatcher@@CAXPEAVQObject@@W4Call@QMetaObject@@HPEAPEAX@Z
pdata	ENDS
CRT$XCU	SEGMENT
??staticMetaObject$initializer$@DataWidgetMapper@LogWatcher@@2P6AXXZEA@@3P6AXXZEA DQ FLAT:??__E?staticMetaObject@DataWidgetMapper@LogWatcher@@2UQMetaObject@@B@@YAXXZ ; ??staticMetaObject$initializer$@DataWidgetMapper@LogWatcher@@2P6AXXZEA@@3P6AXXZEA
CRT$XCU	ENDS
xdata	SEGMENT
$unwind$?metaObject@DataWidgetMapper@LogWatcher@@UEBAPEBUQMetaObject@@XZ DD 010901H
	DD	06209H
$unwind$?qt_metacast@DataWidgetMapper@LogWatcher@@UEAAPEAXPEBD@Z DD 010e01H
	DD	0420eH
$unwind$?qt_metacall@DataWidgetMapper@LogWatcher@@UEAAHW4Call@QMetaObject@@HPEAPEAX@Z DD 011701H
	DD	04217H
$unwind$?qt_static_metacall@DataWidgetMapper@LogWatcher@@CAXPEAVQObject@@W4Call@QMetaObject@@HPEAPEAX@Z DD 011701H
	DD	06217H
xdata	ENDS
; Function compile flags: /Odtp
;	COMDAT ??__E?staticMetaObject@DataWidgetMapper@LogWatcher@@2UQMetaObject@@B@@YAXXZ
text$di	SEGMENT
??__E?staticMetaObject@DataWidgetMapper@LogWatcher@@2UQMetaObject@@B@@YAXXZ PROC ; `dynamic initializer for 'LogWatcher::DataWidgetMapper::staticMetaObject'', COMDAT
; File d:\builder\c++\logwatcher\64bit version\v1.6\logwatcher\logwatcher\x64\debug\moc\moc_datawidgetmapper.cpp
; Line 95
	mov	rax, QWORD PTR __imp_?staticMetaObject@QWidget@@2UQMetaObject@@B
	mov	QWORD PTR ?staticMetaObject@DataWidgetMapper@LogWatcher@@2UQMetaObject@@B, rax
; Line 96
	lea	rax, OFFSET FLAT:?qt_meta_stringdata_LogWatcher__DataWidgetMapper@@3Uqt_meta_stringdata_LogWatcher__DataWidgetMapper_t@@B
	mov	QWORD PTR ?staticMetaObject@DataWidgetMapper@LogWatcher@@2UQMetaObject@@B+8, rax
; Line 97
	lea	rax, OFFSET FLAT:?qt_meta_data_LogWatcher__DataWidgetMapper@@3QBIB
	mov	QWORD PTR ?staticMetaObject@DataWidgetMapper@LogWatcher@@2UQMetaObject@@B+16, rax
; Line 98
	lea	rax, OFFSET FLAT:?qt_static_metacall@DataWidgetMapper@LogWatcher@@CAXPEAVQObject@@W4Call@QMetaObject@@HPEAPEAX@Z ; LogWatcher::DataWidgetMapper::qt_static_metacall
	mov	QWORD PTR ?staticMetaObject@DataWidgetMapper@LogWatcher@@2UQMetaObject@@B+24, rax
; Line 99
	mov	QWORD PTR ?staticMetaObject@DataWidgetMapper@LogWatcher@@2UQMetaObject@@B+32, 0
; Line 100
	mov	QWORD PTR ?staticMetaObject@DataWidgetMapper@LogWatcher@@2UQMetaObject@@B+40, 0
	ret	0
??__E?staticMetaObject@DataWidgetMapper@LogWatcher@@2UQMetaObject@@B@@YAXXZ ENDP ; `dynamic initializer for 'LogWatcher::DataWidgetMapper::staticMetaObject''
text$di	ENDS
; Function compile flags: /Odtp
_TEXT	SEGMENT
tv69 = 32
_t$1 = 40
_o$ = 64
_c$ = 72
_id$ = 80
_a$ = 88
?qt_static_metacall@DataWidgetMapper@LogWatcher@@CAXPEAVQObject@@W4Call@QMetaObject@@HPEAPEAX@Z PROC ; LogWatcher::DataWidgetMapper::qt_static_metacall
; File d:\builder\c++\logwatcher\64bit version\v1.6\logwatcher\logwatcher\x64\debug\moc\moc_datawidgetmapper.cpp
; Line 80
$LN11:
	mov	QWORD PTR [rsp+32], r9
	mov	DWORD PTR [rsp+24], r8d
	mov	DWORD PTR [rsp+16], edx
	mov	QWORD PTR [rsp+8], rcx
	sub	rsp, 56					; 00000038H
; Line 81
	cmp	DWORD PTR _c$[rsp], 0
	jne	SHORT $LN4@qt_static_
; Line 82
	mov	rax, QWORD PTR _o$[rsp]
	mov	QWORD PTR _t$1[rsp], rax
; Line 84
	mov	eax, DWORD PTR _id$[rsp]
	mov	DWORD PTR tv69[rsp], eax
	cmp	DWORD PTR tv69[rsp], 0
	je	SHORT $LN5@qt_static_
	cmp	DWORD PTR tv69[rsp], 1
	je	SHORT $LN6@qt_static_
	cmp	DWORD PTR tv69[rsp], 2
	je	SHORT $LN7@qt_static_
	cmp	DWORD PTR tv69[rsp], 3
	je	SHORT $LN8@qt_static_
	jmp	SHORT $LN9@qt_static_
$LN5@qt_static_:
; Line 85
	mov	rcx, QWORD PTR _t$1[rsp]
	call	?slotUpdateModels@DataWidgetMapper@LogWatcher@@AEAAXXZ ; LogWatcher::DataWidgetMapper::slotUpdateModels
	jmp	SHORT $LN2@qt_static_
$LN6@qt_static_:
; Line 86
	mov	rcx, QWORD PTR _t$1[rsp]
	call	?slotEditRecord@DataWidgetMapper@LogWatcher@@AEAAXXZ ; LogWatcher::DataWidgetMapper::slotEditRecord
	jmp	SHORT $LN2@qt_static_
$LN7@qt_static_:
; Line 87
	mov	rcx, QWORD PTR _t$1[rsp]
	call	?slotRemoveRecord@DataWidgetMapper@LogWatcher@@AEAAXXZ ; LogWatcher::DataWidgetMapper::slotRemoveRecord
	jmp	SHORT $LN2@qt_static_
$LN8@qt_static_:
; Line 88
	mov	eax, 8
	imul	rax, rax, 1
	mov	rcx, QWORD PTR _a$[rsp]
	mov	rdx, QWORD PTR [rcx+rax]
	mov	rcx, QWORD PTR _t$1[rsp]
	call	?slotCustomMenuRequested@DataWidgetMapper@LogWatcher@@AEAAXAEBVQPoint@@@Z ; LogWatcher::DataWidgetMapper::slotCustomMenuRequested
$LN9@qt_static_:
$LN2@qt_static_:
$LN4@qt_static_:
; Line 92
	add	rsp, 56					; 00000038H
	ret	0
?qt_static_metacall@DataWidgetMapper@LogWatcher@@CAXPEAVQObject@@W4Call@QMetaObject@@HPEAPEAX@Z ENDP ; LogWatcher::DataWidgetMapper::qt_static_metacall
_TEXT	ENDS
; Function compile flags: /Odtp
_TEXT	SEGMENT
this$ = 48
_c$ = 56
_id$ = 64
_a$ = 72
?qt_metacall@DataWidgetMapper@LogWatcher@@UEAAHW4Call@QMetaObject@@HPEAPEAX@Z PROC ; LogWatcher::DataWidgetMapper::qt_metacall
; File d:\builder\c++\logwatcher\64bit version\v1.6\logwatcher\logwatcher\x64\debug\moc\moc_datawidgetmapper.cpp
; Line 118
$LN9:
	mov	QWORD PTR [rsp+32], r9
	mov	DWORD PTR [rsp+24], r8d
	mov	DWORD PTR [rsp+16], edx
	mov	QWORD PTR [rsp+8], rcx
	sub	rsp, 40					; 00000028H
; Line 119
	mov	r9, QWORD PTR _a$[rsp]
	mov	r8d, DWORD PTR _id$[rsp]
	mov	edx, DWORD PTR _c$[rsp]
	mov	rcx, QWORD PTR this$[rsp]
	call	QWORD PTR __imp_?qt_metacall@QWidget@@UEAAHW4Call@QMetaObject@@HPEAPEAX@Z
	mov	DWORD PTR _id$[rsp], eax
; Line 120
	cmp	DWORD PTR _id$[rsp], 0
	jge	SHORT $LN2@qt_metacal
; Line 121
	mov	eax, DWORD PTR _id$[rsp]
	jmp	SHORT $LN1@qt_metacal
$LN2@qt_metacal:
; Line 122
	cmp	DWORD PTR _c$[rsp], 0
	jne	SHORT $LN3@qt_metacal
; Line 123
	cmp	DWORD PTR _id$[rsp], 4
	jge	SHORT $LN5@qt_metacal
; Line 124
	mov	r9, QWORD PTR _a$[rsp]
	mov	r8d, DWORD PTR _id$[rsp]
	mov	edx, DWORD PTR _c$[rsp]
	mov	rcx, QWORD PTR this$[rsp]
	call	?qt_static_metacall@DataWidgetMapper@LogWatcher@@CAXPEAVQObject@@W4Call@QMetaObject@@HPEAPEAX@Z ; LogWatcher::DataWidgetMapper::qt_static_metacall
$LN5@qt_metacal:
; Line 125
	mov	eax, DWORD PTR _id$[rsp]
	sub	eax, 4
	mov	DWORD PTR _id$[rsp], eax
	jmp	SHORT $LN4@qt_metacal
$LN3@qt_metacal:
; Line 126
	cmp	DWORD PTR _c$[rsp], 12
	jne	SHORT $LN6@qt_metacal
; Line 127
	cmp	DWORD PTR _id$[rsp], 4
	jge	SHORT $LN7@qt_metacal
; Line 128
	mov	eax, 8
	imul	rax, rax, 0
	mov	rcx, QWORD PTR _a$[rsp]
	mov	rax, QWORD PTR [rcx+rax]
	mov	DWORD PTR [rax], -1
$LN7@qt_metacal:
; Line 129
	mov	eax, DWORD PTR _id$[rsp]
	sub	eax, 4
	mov	DWORD PTR _id$[rsp], eax
$LN6@qt_metacal:
$LN4@qt_metacal:
; Line 131
	mov	eax, DWORD PTR _id$[rsp]
$LN1@qt_metacal:
; Line 132
	add	rsp, 40					; 00000028H
	ret	0
?qt_metacall@DataWidgetMapper@LogWatcher@@UEAAHW4Call@QMetaObject@@HPEAPEAX@Z ENDP ; LogWatcher::DataWidgetMapper::qt_metacall
_TEXT	ENDS
; Function compile flags: /Odtp
_TEXT	SEGMENT
this$ = 48
_clname$ = 56
?qt_metacast@DataWidgetMapper@LogWatcher@@UEAAPEAXPEBD@Z PROC ; LogWatcher::DataWidgetMapper::qt_metacast
; File d:\builder\c++\logwatcher\64bit version\v1.6\logwatcher\logwatcher\x64\debug\moc\moc_datawidgetmapper.cpp
; Line 110
$LN5:
	mov	QWORD PTR [rsp+16], rdx
	mov	QWORD PTR [rsp+8], rcx
	sub	rsp, 40					; 00000028H
; Line 111
	cmp	QWORD PTR _clname$[rsp], 0
	jne	SHORT $LN2@qt_metacas
	xor	eax, eax
	jmp	SHORT $LN1@qt_metacas
$LN2@qt_metacas:
; Line 112
	lea	rdx, OFFSET FLAT:?qt_meta_stringdata_LogWatcher__DataWidgetMapper@@3Uqt_meta_stringdata_LogWatcher__DataWidgetMapper_t@@B+168
	mov	rcx, QWORD PTR _clname$[rsp]
	call	strcmp
	test	eax, eax
	jne	SHORT $LN3@qt_metacas
; Line 113
	mov	rax, QWORD PTR this$[rsp]
	jmp	SHORT $LN1@qt_metacas
$LN3@qt_metacas:
; Line 114
	mov	rdx, QWORD PTR _clname$[rsp]
	mov	rcx, QWORD PTR this$[rsp]
	call	QWORD PTR __imp_?qt_metacast@QWidget@@UEAAPEAXPEBD@Z
$LN1@qt_metacas:
; Line 115
	add	rsp, 40					; 00000028H
	ret	0
?qt_metacast@DataWidgetMapper@LogWatcher@@UEAAPEAXPEBD@Z ENDP ; LogWatcher::DataWidgetMapper::qt_metacast
_TEXT	ENDS
; Function compile flags: /Odtp
_TEXT	SEGMENT
tv82 = 32
this$ = 64
?metaObject@DataWidgetMapper@LogWatcher@@UEBAPEBUQMetaObject@@XZ PROC ; LogWatcher::DataWidgetMapper::metaObject
; File d:\builder\c++\logwatcher\64bit version\v1.6\logwatcher\logwatcher\x64\debug\moc\moc_datawidgetmapper.cpp
; Line 105
$LN5:
	mov	QWORD PTR [rsp+8], rcx
	sub	rsp, 56					; 00000038H
; Line 106
	mov	rax, QWORD PTR this$[rsp]
	add	rax, 8
	mov	rcx, rax
	call	??C?$QScopedPointer@VQObjectData@@U?$QScopedPointerDeleter@VQObjectData@@@@@@QEBAPEAVQObjectData@@XZ ; QScopedPointer<QObjectData,QScopedPointerDeleter<QObjectData> >::operator->
	cmp	QWORD PTR [rax+40], 0
	je	SHORT $LN3@metaObject
	mov	rax, QWORD PTR this$[rsp]
	add	rax, 8
	mov	rcx, rax
	call	??C?$QScopedPointer@VQObjectData@@U?$QScopedPointerDeleter@VQObjectData@@@@@@QEBAPEAVQObjectData@@XZ ; QScopedPointer<QObjectData,QScopedPointerDeleter<QObjectData> >::operator->
	mov	rcx, rax
	call	QWORD PTR __imp_?dynamicMetaObject@QObjectData@@QEBAPEAUQMetaObject@@XZ
	mov	QWORD PTR tv82[rsp], rax
	jmp	SHORT $LN4@metaObject
$LN3@metaObject:
	lea	rax, OFFSET FLAT:?staticMetaObject@DataWidgetMapper@LogWatcher@@2UQMetaObject@@B ; LogWatcher::DataWidgetMapper::staticMetaObject
	mov	QWORD PTR tv82[rsp], rax
$LN4@metaObject:
	mov	rax, QWORD PTR tv82[rsp]
; Line 107
	add	rsp, 56					; 00000038H
	ret	0
?metaObject@DataWidgetMapper@LogWatcher@@UEBAPEBUQMetaObject@@XZ ENDP ; LogWatcher::DataWidgetMapper::metaObject
_TEXT	ENDS
; Function compile flags: /Odtp
;	COMDAT ??C?$QScopedPointer@VQObjectData@@U?$QScopedPointerDeleter@VQObjectData@@@@@@QEBAPEAVQObjectData@@XZ
_TEXT	SEGMENT
this$ = 8
??C?$QScopedPointer@VQObjectData@@U?$QScopedPointerDeleter@VQObjectData@@@@@@QEBAPEAVQObjectData@@XZ PROC ; QScopedPointer<QObjectData,QScopedPointerDeleter<QObjectData> >::operator->, COMDAT
; File c:\qt\qt5.13.0\5.13.0\msvc2017_64\include\qtcore\qscopedpointer.h
; Line 117
	mov	QWORD PTR [rsp+8], rcx
; Line 118
	mov	rax, QWORD PTR this$[rsp]
	mov	rax, QWORD PTR [rax]
; Line 119
	ret	0
??C?$QScopedPointer@VQObjectData@@U?$QScopedPointerDeleter@VQObjectData@@@@@@QEBAPEAVQObjectData@@XZ ENDP ; QScopedPointer<QObjectData,QScopedPointerDeleter<QObjectData> >::operator->
_TEXT	ENDS
; Function compile flags: /Odtp
;	COMDAT ?__empty_global_delete@@YAXPEAX_K@Z
_TEXT	SEGMENT
__formal$ = 8
__formal$ = 16
?__empty_global_delete@@YAXPEAX_K@Z PROC		; __empty_global_delete, COMDAT
; File d:\builder\c++\logwatcher\64bit version\v1.6\logwatcher\logwatcher\x64\debug\moc\moc_datawidgetmapper.cpp
; Line 135
	mov	QWORD PTR [rsp+16], rdx
	mov	QWORD PTR [rsp+8], rcx
	ret	0
?__empty_global_delete@@YAXPEAX_K@Z ENDP		; __empty_global_delete
_TEXT	ENDS
; Function compile flags: /Odtp
;	COMDAT ?__empty_global_delete@@YAXPEAX@Z
_TEXT	SEGMENT
__formal$ = 8
?__empty_global_delete@@YAXPEAX@Z PROC			; __empty_global_delete, COMDAT
; File d:\builder\c++\logwatcher\64bit version\v1.6\logwatcher\logwatcher\x64\debug\moc\moc_datawidgetmapper.cpp
; Line 135
	mov	QWORD PTR [rsp+8], rcx
	ret	0
?__empty_global_delete@@YAXPEAX@Z ENDP			; __empty_global_delete
_TEXT	ENDS
END
