; Listing generated by Microsoft (R) Optimizing Compiler Version 19.16.27034.0 

include listing.inc

INCLUDELIB MSVCRTD
INCLUDELIB OLDNAMES

CONST	SEGMENT
$SG254256 DB	'c:\qt\qt5.13.0\5.13.0\msvc2017_64\include\qtcore\qmetaty'
	DB	'pe.h', 00H
	ORG $+3
$SG254257 DB	'qRegisterNormalizedMetaType was called with a not normal'
	DB	'ized type name, please call qRegisterMetaType instead.', 00H
	ORG $+1
$SG254258 DB	'qRegisterNormalizedMetaType', 00H
	ORG $+4
$SG254617 DB	'c:\qt\qt5.13.0\5.13.0\msvc2017_64\include\qtcore\qmetaty'
	DB	'pe.h', 00H
	ORG $+3
$SG254618 DB	'qRegisterNormalizedMetaType was called with a not normal'
	DB	'ized type name, please call qRegisterMetaType instead.', 00H
	ORG $+1
$SG254619 DB	'qRegisterNormalizedMetaType', 00H
	ORG $+4
$SG255459 DB	'c:\qt\qt5.13.0\5.13.0\msvc2017_64\include\qtcore\qmetaty'
	DB	'pe.h', 00H
	ORG $+3
$SG255460 DB	'qRegisterNormalizedMetaType was called with a not normal'
	DB	'ized type name, please call qRegisterMetaType instead.', 00H
	ORG $+1
$SG255461 DB	'qRegisterNormalizedMetaType', 00H
	ORG $+4
$SG256939 DB	'c:\qt\qt5.13.0\5.13.0\msvc2017_64\include\qtcore\qmetaty'
	DB	'pe.h', 00H
	ORG $+3
$SG256940 DB	'qRegisterNormalizedMetaType was called with a not normal'
	DB	'ized type name, please call qRegisterMetaType instead.', 00H
	ORG $+1
$SG256941 DB	'qRegisterNormalizedMetaType', 00H
	ORG $+4
$SG248946 DB	'c:\qt\qt5.13.0\5.13.0\msvc2017_64\include\qtcore\qmetaty'
	DB	'pe.h', 00H
	ORG $+3
$SG248947 DB	'qRegisterNormalizedMetaType was called with a not normal'
	DB	'ized type name, please call qRegisterMetaType instead.', 00H
	ORG $+1
$SG248948 DB	'qRegisterNormalizedMetaType', 00H
	ORG $+4
$SG257300 DB	'c:\qt\qt5.13.0\5.13.0\msvc2017_64\include\qtcore\qmetaty'
	DB	'pe.h', 00H
	ORG $+3
$SG257301 DB	'qRegisterNormalizedMetaType was called with a not normal'
	DB	'ized type name, please call qRegisterMetaType instead.', 00H
	ORG $+1
$SG257302 DB	'qRegisterNormalizedMetaType', 00H
	ORG $+4
$SG257661 DB	'c:\qt\qt5.13.0\5.13.0\msvc2017_64\include\qtcore\qmetaty'
	DB	'pe.h', 00H
	ORG $+3
$SG257662 DB	'qRegisterNormalizedMetaType was called with a not normal'
	DB	'ized type name, please call qRegisterMetaType instead.', 00H
	ORG $+1
$SG257663 DB	'qRegisterNormalizedMetaType', 00H
	ORG $+4
$SG258047 DB	'c:\qt\qt5.13.0\5.13.0\msvc2017_64\include\qtcore\qmetaty'
	DB	'pe.h', 00H
	ORG $+3
$SG258048 DB	'qRegisterNormalizedMetaType was called with a not normal'
	DB	'ized type name, please call qRegisterMetaType instead.', 00H
	ORG $+1
$SG258049 DB	'qRegisterNormalizedMetaType', 00H
	ORG $+4
$SG258408 DB	'c:\qt\qt5.13.0\5.13.0\msvc2017_64\include\qtcore\qmetaty'
	DB	'pe.h', 00H
	ORG $+3
$SG258409 DB	'qRegisterNormalizedMetaType was called with a not normal'
	DB	'ized type name, please call qRegisterMetaType instead.', 00H
	ORG $+1
$SG258410 DB	'qRegisterNormalizedMetaType', 00H
	ORG $+4
$SG258769 DB	'c:\qt\qt5.13.0\5.13.0\msvc2017_64\include\qtcore\qmetaty'
	DB	'pe.h', 00H
	ORG $+3
$SG258770 DB	'qRegisterNormalizedMetaType was called with a not normal'
	DB	'ized type name, please call qRegisterMetaType instead.', 00H
	ORG $+1
$SG258771 DB	'qRegisterNormalizedMetaType', 00H
	ORG $+4
$SG259130 DB	'c:\qt\qt5.13.0\5.13.0\msvc2017_64\include\qtcore\qmetaty'
	DB	'pe.h', 00H
	ORG $+3
$SG259131 DB	'qRegisterNormalizedMetaType was called with a not normal'
	DB	'ized type name, please call qRegisterMetaType instead.', 00H
	ORG $+1
$SG259132 DB	'qRegisterNormalizedMetaType', 00H
	ORG $+4
$SG259661 DB	'c:\qt\qt5.13.0\5.13.0\msvc2017_64\include\qtcore\qmetaty'
	DB	'pe.h', 00H
	ORG $+3
$SG259662 DB	'qRegisterNormalizedMetaType was called with a not normal'
	DB	'ized type name, please call qRegisterMetaType instead.', 00H
	ORG $+1
$SG259663 DB	'qRegisterNormalizedMetaType', 00H
	ORG $+4
$SG252542 DB	'c:\qt\qt5.13.0\5.13.0\msvc2017_64\include\qtcore\qvector'
	DB	'.h', 00H
	ORG $+5
$SG252543 DB	'aalloc >= d->size', 00H
	ORG $+6
$SG252546 DB	'c:\qt\qt5.13.0\5.13.0\msvc2017_64\include\qtcore\qvector'
	DB	'.h', 00H
	ORG $+5
$SG252549 DB	'!x->ref.isStatic()', 00H
	ORG $+5
$SG252547 DB	'x->ref.isSharable() || options.testFlag(QArrayData::Unsh'
	DB	'arable)', 00H
$SG252548 DB	'c:\qt\qt5.13.0\5.13.0\msvc2017_64\include\qtcore\qvector'
	DB	'.h', 00H
	ORG $+5
$SG252557 DB	'c:\qt\qt5.13.0\5.13.0\msvc2017_64\include\qtcore\qvector'
	DB	'.h', 00H
	ORG $+1
$SG252558 DB	'd != x', 00H
	ORG $+5
$SG252563 DB	'c:\qt\qt5.13.0\5.13.0\msvc2017_64\include\qtcore\qvector'
	DB	'.h', 00H
	ORG $+5
$SG252564 DB	'd->data()', 00H
	ORG $+6
$SG252565 DB	'c:\qt\qt5.13.0\5.13.0\msvc2017_64\include\qtcore\qvector'
	DB	'.h', 00H
	ORG $+5
$SG252566 DB	'uint(d->size) <= d->alloc', 00H
	ORG $+6
$SG252567 DB	'c:\qt\qt5.13.0\5.13.0\msvc2017_64\include\qtcore\qvector'
	DB	'.h', 00H
	ORG $+5
$SG252568 DB	'd != Data::unsharableEmpty()', 00H
	ORG $+3
$SG252569 DB	'c:\qt\qt5.13.0\5.13.0\msvc2017_64\include\qtcore\qvector'
	DB	'.h', 00H
	ORG $+5
$SG252570 DB	'd != Data::sharedNull()', 00H
$SG252571 DB	'c:\qt\qt5.13.0\5.13.0\msvc2017_64\include\qtcore\qvector'
	DB	'.h', 00H
	ORG $+5
$SG252572 DB	'd->alloc >= uint(aalloc)', 00H
	ORG $+7
?qt_meta_stringdata_LogWatcher__LogWatcher@@3Uqt_meta_stringdata_LogWatcher__LogWatcher_t@@B DD 0ffffffffH ; qt_meta_stringdata_LogWatcher__LogWatcher
	DD	016H
	DD	00H
	ORG $+4
	DQ	0000000000000180H
	DD	0ffffffffH
	DD	019H
	DD	00H
	ORG $+4
	DQ	000000000000017fH
	DD	0ffffffffH
	DD	00H
	DD	00H
	ORG $+4
	DQ	0000000000000181H
	DD	0ffffffffH
	DD	0eH
	DD	00H
	ORG $+4
	DQ	000000000000016aH
	DD	0ffffffffH
	DD	01eH
	DD	00H
	ORG $+4
	DQ	0000000000000161H
	DD	0ffffffffH
	DD	05H
	DD	00H
	ORG $+4
	DQ	0000000000000168H
	DD	0ffffffffH
	DD	024H
	DD	00H
	ORG $+4
	DQ	0000000000000156H
	DD	0ffffffffH
	DD	019H
	DD	00H
	ORG $+4
	DQ	0000000000000163H
	DD	0ffffffffH
	DD	01eH
	DD	00H
	ORG $+4
	DQ	0000000000000165H
	DD	0ffffffffH
	DD	01fH
	DD	00H
	ORG $+4
	DQ	000000000000016cH
	DD	0ffffffffH
	DD	01dH
	DD	00H
	ORG $+4
	DQ	0000000000000174H
	DD	0ffffffffH
	DD	01bH
	DD	00H
	ORG $+4
	DQ	000000000000017aH
	DD	0ffffffffH
	DD	010H
	DD	00H
	ORG $+4
	DQ	000000000000017eH
	DD	0ffffffffH
	DD	0eH
	DD	00H
	ORG $+4
	DQ	0000000000000177H
	DD	0ffffffffH
	DD	017H
	DD	00H
	ORG $+4
	DQ	000000000000016eH
	DD	0ffffffffH
	DD	03H
	DD	00H
	ORG $+4
	DQ	000000000000016eH
	DB	04cH
	DB	06fH
	DB	067H
	DB	057H
	DB	061H
	DB	074H
	DB	063H
	DB	068H
	DB	065H
	DB	072H
	DB	03aH
	DB	03aH
	DB	04cH
	DB	06fH
	DB	067H
	DB	057H
	DB	061H
	DB	074H
	DB	063H
	DB	068H
	DB	065H
	DB	072H
	DB	00H
	DB	06fH
	DB	06eH
	DB	05fH
	DB	070H
	DB	075H
	DB	073H
	DB	068H
	DB	042H
	DB	075H
	DB	074H
	DB	074H
	DB	06fH
	DB	06eH
	DB	04fH
	DB	070H
	DB	065H
	DB	06eH
	DB	05fH
	DB	063H
	DB	06cH
	DB	069H
	DB	063H
	DB	06bH
	DB	065H
	DB	064H
	DB	00H
	DB	00H
	DB	061H
	DB	070H
	DB	070H
	DB	065H
	DB	06eH
	DB	064H
	DB	046H
	DB	069H
	DB	06cH
	DB	065H
	DB	044H
	DB	061H
	DB	074H
	DB	061H
	DB	00H
	DB	06fH
	DB	06eH
	DB	05fH
	DB	074H
	DB	061H
	DB	062H
	DB	057H
	DB	069H
	DB	064H
	DB	067H
	DB	065H
	DB	074H
	DB	05fH
	DB	074H
	DB	061H
	DB	062H
	DB	043H
	DB	06cH
	DB	06fH
	DB	073H
	DB	065H
	DB	052H
	DB	065H
	DB	067H
	DB	075H
	DB	065H
	DB	073H
	DB	074H
	DB	065H
	DB	064H
	DB	00H
	DB	069H
	DB	06eH
	DB	064H
	DB	065H
	DB	078H
	DB	00H
	DB	06fH
	DB	06eH
	DB	05fH
	DB	074H
	DB	061H
	DB	062H
	DB	057H
	DB	069H
	DB	064H
	DB	067H
	DB	065H
	DB	074H
	DB	05fH
	DB	074H
	DB	061H
	DB	062H
	DB	043H
	DB	06cH
	DB	06fH
	DB	073H
	DB	065H
	DB	052H
	DB	065H
	DB	067H
	DB	075H
	DB	065H
	DB	073H
	DB	074H
	DB	065H
	DB	064H
	DB	053H
	DB	065H
	DB	061H
	DB	072H
	DB	063H
	DB	068H
	DB	00H
	DB	06fH
	DB	06eH
	DB	05fH
	DB	070H
	DB	075H
	DB	073H
	DB	068H
	DB	042H
	DB	075H
	DB	074H
	DB	074H
	DB	06fH
	DB	06eH
	DB	04eH
	DB	065H
	DB	078H
	DB	074H
	DB	05fH
	DB	063H
	DB	06cH
	DB	069H
	DB	063H
	DB	06bH
	DB	065H
	DB	064H
	DB	00H
	DB	06fH
	DB	06eH
	DB	05fH
	DB	070H
	DB	075H
	DB	073H
	DB	068H
	DB	042H
	DB	075H
	DB	074H
	DB	074H
	DB	06fH
	DB	06eH
	DB	049H
	DB	06eH
	DB	074H
	DB	065H
	DB	06cH
	DB	06cH
	DB	065H
	DB	063H
	DB	074H
	DB	05fH
	DB	063H
	DB	06cH
	DB	069H
	DB	063H
	DB	06bH
	DB	065H
	DB	064H
	DB	00H
	DB	06fH
	DB	06eH
	DB	05fH
	DB	070H
	DB	075H
	DB	073H
	DB	068H
	DB	042H
	DB	075H
	DB	074H
	DB	074H
	DB	06fH
	DB	06eH
	DB	04fH
	DB	070H
	DB	065H
	DB	06eH
	DB	053H
	DB	065H
	DB	061H
	DB	072H
	DB	063H
	DB	068H
	DB	05fH
	DB	063H
	DB	06cH
	DB	069H
	DB	063H
	DB	06bH
	DB	065H
	DB	064H
	DB	00H
	DB	06fH
	DB	06eH
	DB	05fH
	DB	070H
	DB	075H
	DB	073H
	DB	068H
	DB	042H
	DB	075H
	DB	074H
	DB	074H
	DB	06fH
	DB	06eH
	DB	045H
	DB	064H
	DB	069H
	DB	074H
	DB	044H
	DB	061H
	DB	074H
	DB	061H
	DB	05fH
	DB	063H
	DB	06cH
	DB	069H
	DB	063H
	DB	06bH
	DB	065H
	DB	064H
	DB	00H
	DB	06fH
	DB	06eH
	DB	05fH
	DB	070H
	DB	075H
	DB	073H
	DB	068H
	DB	042H
	DB	075H
	DB	074H
	DB	074H
	DB	06fH
	DB	06eH
	DB	041H
	DB	06eH
	DB	061H
	DB	06cH
	DB	079H
	DB	07aH
	DB	05fH
	DB	063H
	DB	06cH
	DB	069H
	DB	063H
	DB	06bH
	DB	065H
	DB	064H
	DB	00H
	DB	073H
	DB	06cH
	DB	06fH
	DB	074H
	DB	043H
	DB	072H
	DB	065H
	DB	061H
	DB	074H
	DB	065H
	DB	052H
	DB	065H
	DB	063H
	DB	06fH
	DB	072H
	DB	064H
	DB	00H
	DB	073H
	DB	06cH
	DB	06fH
	DB	074H
	DB	046H
	DB	069H
	DB	06eH
	DB	064H
	DB	052H
	DB	065H
	DB	063H
	DB	06fH
	DB	072H
	DB	064H
	DB	00H
	DB	073H
	DB	06cH
	DB	06fH
	DB	074H
	DB	043H
	DB	075H
	DB	073H
	DB	074H
	DB	06fH
	DB	06dH
	DB	04dH
	DB	065H
	DB	06eH
	DB	075H
	DB	052H
	DB	065H
	DB	071H
	DB	075H
	DB	065H
	DB	073H
	DB	074H
	DB	065H
	DB	064H
	DB	00H
	DB	070H
	DB	06fH
	DB	073H
	DB	00H
	ORG $+6
?qt_meta_data_LogWatcher__LogWatcher@@3QBIB DD 08H	; qt_meta_data_LogWatcher__LogWatcher
	DD	00H
	DD	00H
	DD	00H
	DD	0cH
	DD	0eH
	DD	00H
	DD	00H
	DD	00H
	DD	00H
	DD	00H
	DD	00H
	DD	00H
	DD	00H
	DD	01H
	DD	00H
	DD	04aH
	DD	02H
	DD	08H
	DD	03H
	DD	01H
	DD	04bH
	DD	02H
	DD	08H
	DD	04H
	DD	01H
	DD	04eH
	DD	02H
	DD	08H
	DD	06H
	DD	01H
	DD	051H
	DD	02H
	DD	08H
	DD	07H
	DD	00H
	DD	054H
	DD	02H
	DD	08H
	DD	08H
	DD	00H
	DD	055H
	DD	02H
	DD	08H
	DD	09H
	DD	00H
	DD	056H
	DD	02H
	DD	08H
	DD	0aH
	DD	00H
	DD	057H
	DD	02H
	DD	08H
	DD	0bH
	DD	00H
	DD	058H
	DD	02H
	DD	08H
	DD	0cH
	DD	00H
	DD	059H
	DD	02H
	DD	08H
	DD	0dH
	DD	00H
	DD	05aH
	DD	02H
	DD	08H
	DD	0eH
	DD	01H
	DD	05bH
	DD	02H
	DD	08H
	DD	02bH
	DD	02bH
	DD	02H
	DD	02H
	DD	02bH
	DD	02H
	DD	05H
	DD	02bH
	DD	02H
	DD	05H
	DD	02bH
	DD	02bH
	DD	02bH
	DD	02bH
	DD	02bH
	DD	02bH
	DD	02bH
	DD	02bH
	DD	019H
	DD	0fH
	DD	00H
	ORG $+4
$SG253534 DB	'c:\qt\qt5.13.0\5.13.0\msvc2017_64\include\qtcore\qmetaty'
	DB	'pe.h', 00H
	ORG $+3
$SG253535 DB	'qRegisterNormalizedMetaType was called with a not normal'
	DB	'ized type name, please call qRegisterMetaType instead.', 00H
	ORG $+1
$SG253536 DB	'qRegisterNormalizedMetaType', 00H
	ORG $+4
$SG253895 DB	'c:\qt\qt5.13.0\5.13.0\msvc2017_64\include\qtcore\qmetaty'
	DB	'pe.h', 00H
	ORG $+3
$SG253896 DB	'qRegisterNormalizedMetaType was called with a not normal'
	DB	'ized type name, please call qRegisterMetaType instead.', 00H
	ORG $+1
$SG253897 DB	'qRegisterNormalizedMetaType', 00H
CONST	ENDS
PUBLIC	?__empty_global_delete@@YAXPEAX@Z		; __empty_global_delete
PUBLIC	?__empty_global_delete@@YAXPEAX_K@Z		; __empty_global_delete
PUBLIC	??C?$QScopedPointer@VQObjectData@@U?$QScopedPointerDeleter@VQObjectData@@@@@@QEBAPEAVQObjectData@@XZ ; QScopedPointer<QObjectData,QScopedPointerDeleter<QObjectData> >::operator->
PUBLIC	?metaObject@LogWatcher@1@UEBAPEBUQMetaObject@@XZ ; LogWatcher::LogWatcher::metaObject
PUBLIC	?qt_metacast@LogWatcher@1@UEAAPEAXPEBD@Z	; LogWatcher::LogWatcher::qt_metacast
PUBLIC	?qt_metacall@LogWatcher@1@UEAAHW4Call@QMetaObject@@HPEAPEAX@Z ; LogWatcher::LogWatcher::qt_metacall
PUBLIC	?qt_static_metacall@LogWatcher@1@CAXPEAVQObject@@W4Call@QMetaObject@@HPEAPEAX@Z ; LogWatcher::LogWatcher::qt_static_metacall
PUBLIC	?staticMetaObject@LogWatcher@1@2UQMetaObject@@B	; LogWatcher::LogWatcher::staticMetaObject
EXTRN	strcmp:PROC
EXTRN	__imp_?dynamicMetaObject@QObjectData@@QEBAPEAUQMetaObject@@XZ:PROC
EXTRN	__imp_?qt_metacast@QMainWindow@@UEAAPEAXPEBD@Z:PROC
EXTRN	__imp_?qt_metacall@QMainWindow@@UEAAHW4Call@QMetaObject@@HPEAPEAX@Z:PROC
EXTRN	?on_pushButtonOpen_clicked@LogWatcher@1@AEAAXXZ:PROC ; LogWatcher::LogWatcher::on_pushButtonOpen_clicked
EXTRN	?appendFileData@LogWatcher@1@AEAAXH@Z:PROC	; LogWatcher::LogWatcher::appendFileData
EXTRN	?on_tabWidget_tabCloseReguested@LogWatcher@1@AEAAXH@Z:PROC ; LogWatcher::LogWatcher::on_tabWidget_tabCloseReguested
EXTRN	?on_tabWidget_tabCloseReguestedSearch@LogWatcher@1@AEAAXH@Z:PROC ; LogWatcher::LogWatcher::on_tabWidget_tabCloseReguestedSearch
EXTRN	?on_pushButtonNext_clicked@LogWatcher@1@AEAAXXZ:PROC ; LogWatcher::LogWatcher::on_pushButtonNext_clicked
EXTRN	?on_pushButtonIntellect_clicked@LogWatcher@1@AEAAXXZ:PROC ; LogWatcher::LogWatcher::on_pushButtonIntellect_clicked
EXTRN	?on_pushButtonOpenSearch_clicked@LogWatcher@1@AEAAXXZ:PROC ; LogWatcher::LogWatcher::on_pushButtonOpenSearch_clicked
EXTRN	?on_pushButtonEditData_clicked@LogWatcher@1@AEAAXXZ:PROC ; LogWatcher::LogWatcher::on_pushButtonEditData_clicked
EXTRN	?on_pushButtonAnalyz_clicked@LogWatcher@1@AEAAXXZ:PROC ; LogWatcher::LogWatcher::on_pushButtonAnalyz_clicked
EXTRN	?slotCreateRecord@LogWatcher@1@AEAAXXZ:PROC	; LogWatcher::LogWatcher::slotCreateRecord
EXTRN	?slotFindRecord@LogWatcher@1@AEAAXXZ:PROC	; LogWatcher::LogWatcher::slotFindRecord
EXTRN	?slotCustomMenuRequested@LogWatcher@1@AEAAXAEBVQPoint@@@Z:PROC ; LogWatcher::LogWatcher::slotCustomMenuRequested
EXTRN	__imp_?staticMetaObject@QMainWindow@@2UQMetaObject@@B:BYTE
EXTRN	__ImageBase:BYTE
_BSS	SEGMENT
?staticMetaObject@LogWatcher@1@2UQMetaObject@@B DB 030H DUP (?) ; LogWatcher::LogWatcher::staticMetaObject
_BSS	ENDS
pdata	SEGMENT
$pdata$?metaObject@LogWatcher@1@UEBAPEBUQMetaObject@@XZ DD imagerel $LN5
	DD	imagerel $LN5+88
	DD	imagerel $unwind$?metaObject@LogWatcher@1@UEBAPEBUQMetaObject@@XZ
$pdata$?qt_metacast@LogWatcher@1@UEAAPEAXPEBD@Z DD imagerel $LN5
	DD	imagerel $LN5+75
	DD	imagerel $unwind$?qt_metacast@LogWatcher@1@UEAAPEAXPEBD@Z
$pdata$?qt_metacall@LogWatcher@1@UEAAHW4Call@QMetaObject@@HPEAPEAX@Z DD imagerel $LN9
	DD	imagerel $LN9+174
	DD	imagerel $unwind$?qt_metacall@LogWatcher@1@UEAAHW4Call@QMetaObject@@HPEAPEAX@Z
$pdata$?qt_static_metacall@LogWatcher@1@CAXPEAVQObject@@W4Call@QMetaObject@@HPEAPEAX@Z DD imagerel $LN20
	DD	imagerel $LN20+372
	DD	imagerel $unwind$?qt_static_metacall@LogWatcher@1@CAXPEAVQObject@@W4Call@QMetaObject@@HPEAPEAX@Z
pdata	ENDS
CRT$XCU	SEGMENT
??staticMetaObject$initializer$@LogWatcher@1@2P6AXXZEA@@3P6AXXZEA DQ FLAT:??__E?staticMetaObject@LogWatcher@1@2UQMetaObject@@B@@YAXXZ ; ??staticMetaObject$initializer$@LogWatcher@1@2P6AXXZEA@@3P6AXXZEA
CRT$XCU	ENDS
xdata	SEGMENT
$unwind$?metaObject@LogWatcher@1@UEBAPEBUQMetaObject@@XZ DD 010901H
	DD	06209H
$unwind$?qt_metacast@LogWatcher@1@UEAAPEAXPEBD@Z DD 010e01H
	DD	0420eH
$unwind$?qt_metacall@LogWatcher@1@UEAAHW4Call@QMetaObject@@HPEAPEAX@Z DD 011701H
	DD	04217H
$unwind$?qt_static_metacall@LogWatcher@1@CAXPEAVQObject@@W4Call@QMetaObject@@HPEAPEAX@Z DD 011701H
	DD	06217H
xdata	ENDS
; Function compile flags: /Odtp
;	COMDAT ??__E?staticMetaObject@LogWatcher@1@2UQMetaObject@@B@@YAXXZ
text$di	SEGMENT
??__E?staticMetaObject@LogWatcher@1@2UQMetaObject@@B@@YAXXZ PROC ; `dynamic initializer for 'LogWatcher::LogWatcher::staticMetaObject'', COMDAT
; File d:\builder\c++\logwatcher\64bit version\v1.6\logwatcher\logwatcher\x64\debug\moc\moc_logwatcher.cpp
; Line 134
	mov	rax, QWORD PTR __imp_?staticMetaObject@QMainWindow@@2UQMetaObject@@B
	mov	QWORD PTR ?staticMetaObject@LogWatcher@1@2UQMetaObject@@B, rax
; Line 135
	lea	rax, OFFSET FLAT:?qt_meta_stringdata_LogWatcher__LogWatcher@@3Uqt_meta_stringdata_LogWatcher__LogWatcher_t@@B
	mov	QWORD PTR ?staticMetaObject@LogWatcher@1@2UQMetaObject@@B+8, rax
; Line 136
	lea	rax, OFFSET FLAT:?qt_meta_data_LogWatcher__LogWatcher@@3QBIB
	mov	QWORD PTR ?staticMetaObject@LogWatcher@1@2UQMetaObject@@B+16, rax
; Line 137
	lea	rax, OFFSET FLAT:?qt_static_metacall@LogWatcher@1@CAXPEAVQObject@@W4Call@QMetaObject@@HPEAPEAX@Z ; LogWatcher::LogWatcher::qt_static_metacall
	mov	QWORD PTR ?staticMetaObject@LogWatcher@1@2UQMetaObject@@B+24, rax
; Line 138
	mov	QWORD PTR ?staticMetaObject@LogWatcher@1@2UQMetaObject@@B+32, 0
; Line 139
	mov	QWORD PTR ?staticMetaObject@LogWatcher@1@2UQMetaObject@@B+40, 0
	ret	0
??__E?staticMetaObject@LogWatcher@1@2UQMetaObject@@B@@YAXXZ ENDP ; `dynamic initializer for 'LogWatcher::LogWatcher::staticMetaObject''
text$di	ENDS
; Function compile flags: /Odtp
_TEXT	SEGMENT
tv69 = 32
_t$1 = 40
_o$ = 64
_c$ = 72
_id$ = 80
_a$ = 88
?qt_static_metacall@LogWatcher@1@CAXPEAVQObject@@W4Call@QMetaObject@@HPEAPEAX@Z PROC ; LogWatcher::LogWatcher::qt_static_metacall
; File d:\builder\c++\logwatcher\64bit version\v1.6\logwatcher\logwatcher\x64\debug\moc\moc_logwatcher.cpp
; Line 111
$LN20:
	mov	QWORD PTR [rsp+32], r9
	mov	DWORD PTR [rsp+24], r8d
	mov	DWORD PTR [rsp+16], edx
	mov	QWORD PTR [rsp+8], rcx
	sub	rsp, 56					; 00000038H
; Line 112
	cmp	DWORD PTR _c$[rsp], 0
	jne	$LN4@qt_static_
; Line 113
	mov	rax, QWORD PTR _o$[rsp]
	mov	QWORD PTR _t$1[rsp], rax
; Line 115
	mov	eax, DWORD PTR _id$[rsp]
	mov	DWORD PTR tv69[rsp], eax
	cmp	DWORD PTR tv69[rsp], 11
	ja	$LN17@qt_static_
	movsxd	rax, DWORD PTR tv69[rsp]
	lea	rcx, OFFSET FLAT:__ImageBase
	mov	eax, DWORD PTR $LN19@qt_static_[rcx+rax*4]
	add	rax, rcx
	jmp	rax
$LN5@qt_static_:
; Line 116
	mov	rcx, QWORD PTR _t$1[rsp]
	call	?on_pushButtonOpen_clicked@LogWatcher@1@AEAAXXZ ; LogWatcher::LogWatcher::on_pushButtonOpen_clicked
	jmp	$LN2@qt_static_
$LN6@qt_static_:
; Line 117
	mov	eax, 8
	imul	rax, rax, 1
	mov	rcx, QWORD PTR _a$[rsp]
	mov	rax, QWORD PTR [rcx+rax]
	mov	edx, DWORD PTR [rax]
	mov	rcx, QWORD PTR _t$1[rsp]
	call	?appendFileData@LogWatcher@1@AEAAXH@Z	; LogWatcher::LogWatcher::appendFileData
	jmp	$LN2@qt_static_
$LN7@qt_static_:
; Line 118
	mov	eax, 8
	imul	rax, rax, 1
	mov	rcx, QWORD PTR _a$[rsp]
	mov	rax, QWORD PTR [rcx+rax]
	mov	edx, DWORD PTR [rax]
	mov	rcx, QWORD PTR _t$1[rsp]
	call	?on_tabWidget_tabCloseReguested@LogWatcher@1@AEAAXH@Z ; LogWatcher::LogWatcher::on_tabWidget_tabCloseReguested
	jmp	$LN2@qt_static_
$LN8@qt_static_:
; Line 119
	mov	eax, 8
	imul	rax, rax, 1
	mov	rcx, QWORD PTR _a$[rsp]
	mov	rax, QWORD PTR [rcx+rax]
	mov	edx, DWORD PTR [rax]
	mov	rcx, QWORD PTR _t$1[rsp]
	call	?on_tabWidget_tabCloseReguestedSearch@LogWatcher@1@AEAAXH@Z ; LogWatcher::LogWatcher::on_tabWidget_tabCloseReguestedSearch
	jmp	SHORT $LN2@qt_static_
$LN9@qt_static_:
; Line 120
	mov	rcx, QWORD PTR _t$1[rsp]
	call	?on_pushButtonNext_clicked@LogWatcher@1@AEAAXXZ ; LogWatcher::LogWatcher::on_pushButtonNext_clicked
	jmp	SHORT $LN2@qt_static_
$LN10@qt_static_:
; Line 121
	mov	rcx, QWORD PTR _t$1[rsp]
	call	?on_pushButtonIntellect_clicked@LogWatcher@1@AEAAXXZ ; LogWatcher::LogWatcher::on_pushButtonIntellect_clicked
	jmp	SHORT $LN2@qt_static_
$LN11@qt_static_:
; Line 122
	mov	rcx, QWORD PTR _t$1[rsp]
	call	?on_pushButtonOpenSearch_clicked@LogWatcher@1@AEAAXXZ ; LogWatcher::LogWatcher::on_pushButtonOpenSearch_clicked
	jmp	SHORT $LN2@qt_static_
$LN12@qt_static_:
; Line 123
	mov	rcx, QWORD PTR _t$1[rsp]
	call	?on_pushButtonEditData_clicked@LogWatcher@1@AEAAXXZ ; LogWatcher::LogWatcher::on_pushButtonEditData_clicked
	jmp	SHORT $LN2@qt_static_
$LN13@qt_static_:
; Line 124
	mov	rcx, QWORD PTR _t$1[rsp]
	call	?on_pushButtonAnalyz_clicked@LogWatcher@1@AEAAXXZ ; LogWatcher::LogWatcher::on_pushButtonAnalyz_clicked
	jmp	SHORT $LN2@qt_static_
$LN14@qt_static_:
; Line 125
	mov	rcx, QWORD PTR _t$1[rsp]
	call	?slotCreateRecord@LogWatcher@1@AEAAXXZ	; LogWatcher::LogWatcher::slotCreateRecord
	jmp	SHORT $LN2@qt_static_
$LN15@qt_static_:
; Line 126
	mov	rcx, QWORD PTR _t$1[rsp]
	call	?slotFindRecord@LogWatcher@1@AEAAXXZ	; LogWatcher::LogWatcher::slotFindRecord
	jmp	SHORT $LN2@qt_static_
$LN16@qt_static_:
; Line 127
	mov	eax, 8
	imul	rax, rax, 1
	mov	rcx, QWORD PTR _a$[rsp]
	mov	rdx, QWORD PTR [rcx+rax]
	mov	rcx, QWORD PTR _t$1[rsp]
	call	?slotCustomMenuRequested@LogWatcher@1@AEAAXAEBVQPoint@@@Z ; LogWatcher::LogWatcher::slotCustomMenuRequested
$LN17@qt_static_:
$LN2@qt_static_:
$LN4@qt_static_:
; Line 131
	add	rsp, 56					; 00000038H
	ret	0
	npad	3
$LN19@qt_static_:
	DD	$LN5@qt_static_
	DD	$LN6@qt_static_
	DD	$LN7@qt_static_
	DD	$LN8@qt_static_
	DD	$LN9@qt_static_
	DD	$LN10@qt_static_
	DD	$LN11@qt_static_
	DD	$LN12@qt_static_
	DD	$LN13@qt_static_
	DD	$LN14@qt_static_
	DD	$LN15@qt_static_
	DD	$LN16@qt_static_
?qt_static_metacall@LogWatcher@1@CAXPEAVQObject@@W4Call@QMetaObject@@HPEAPEAX@Z ENDP ; LogWatcher::LogWatcher::qt_static_metacall
_TEXT	ENDS
; Function compile flags: /Odtp
_TEXT	SEGMENT
this$ = 48
_c$ = 56
_id$ = 64
_a$ = 72
?qt_metacall@LogWatcher@1@UEAAHW4Call@QMetaObject@@HPEAPEAX@Z PROC ; LogWatcher::LogWatcher::qt_metacall
; File d:\builder\c++\logwatcher\64bit version\v1.6\logwatcher\logwatcher\x64\debug\moc\moc_logwatcher.cpp
; Line 157
$LN9:
	mov	QWORD PTR [rsp+32], r9
	mov	DWORD PTR [rsp+24], r8d
	mov	DWORD PTR [rsp+16], edx
	mov	QWORD PTR [rsp+8], rcx
	sub	rsp, 40					; 00000028H
; Line 158
	mov	r9, QWORD PTR _a$[rsp]
	mov	r8d, DWORD PTR _id$[rsp]
	mov	edx, DWORD PTR _c$[rsp]
	mov	rcx, QWORD PTR this$[rsp]
	call	QWORD PTR __imp_?qt_metacall@QMainWindow@@UEAAHW4Call@QMetaObject@@HPEAPEAX@Z
	mov	DWORD PTR _id$[rsp], eax
; Line 159
	cmp	DWORD PTR _id$[rsp], 0
	jge	SHORT $LN2@qt_metacal
; Line 160
	mov	eax, DWORD PTR _id$[rsp]
	jmp	SHORT $LN1@qt_metacal
$LN2@qt_metacal:
; Line 161
	cmp	DWORD PTR _c$[rsp], 0
	jne	SHORT $LN3@qt_metacal
; Line 162
	cmp	DWORD PTR _id$[rsp], 12
	jge	SHORT $LN5@qt_metacal
; Line 163
	mov	r9, QWORD PTR _a$[rsp]
	mov	r8d, DWORD PTR _id$[rsp]
	mov	edx, DWORD PTR _c$[rsp]
	mov	rcx, QWORD PTR this$[rsp]
	call	?qt_static_metacall@LogWatcher@1@CAXPEAVQObject@@W4Call@QMetaObject@@HPEAPEAX@Z ; LogWatcher::LogWatcher::qt_static_metacall
$LN5@qt_metacal:
; Line 164
	mov	eax, DWORD PTR _id$[rsp]
	sub	eax, 12
	mov	DWORD PTR _id$[rsp], eax
	jmp	SHORT $LN4@qt_metacal
$LN3@qt_metacal:
; Line 165
	cmp	DWORD PTR _c$[rsp], 12
	jne	SHORT $LN6@qt_metacal
; Line 166
	cmp	DWORD PTR _id$[rsp], 12
	jge	SHORT $LN7@qt_metacal
; Line 167
	mov	eax, 8
	imul	rax, rax, 0
	mov	rcx, QWORD PTR _a$[rsp]
	mov	rax, QWORD PTR [rcx+rax]
	mov	DWORD PTR [rax], -1
$LN7@qt_metacal:
; Line 168
	mov	eax, DWORD PTR _id$[rsp]
	sub	eax, 12
	mov	DWORD PTR _id$[rsp], eax
$LN6@qt_metacal:
$LN4@qt_metacal:
; Line 170
	mov	eax, DWORD PTR _id$[rsp]
$LN1@qt_metacal:
; Line 171
	add	rsp, 40					; 00000028H
	ret	0
?qt_metacall@LogWatcher@1@UEAAHW4Call@QMetaObject@@HPEAPEAX@Z ENDP ; LogWatcher::LogWatcher::qt_metacall
_TEXT	ENDS
; Function compile flags: /Odtp
_TEXT	SEGMENT
this$ = 48
_clname$ = 56
?qt_metacast@LogWatcher@1@UEAAPEAXPEBD@Z PROC		; LogWatcher::LogWatcher::qt_metacast
; File d:\builder\c++\logwatcher\64bit version\v1.6\logwatcher\logwatcher\x64\debug\moc\moc_logwatcher.cpp
; Line 149
$LN5:
	mov	QWORD PTR [rsp+16], rdx
	mov	QWORD PTR [rsp+8], rcx
	sub	rsp, 40					; 00000028H
; Line 150
	cmp	QWORD PTR _clname$[rsp], 0
	jne	SHORT $LN2@qt_metacas
	xor	eax, eax
	jmp	SHORT $LN1@qt_metacas
$LN2@qt_metacas:
; Line 151
	lea	rdx, OFFSET FLAT:?qt_meta_stringdata_LogWatcher__LogWatcher@@3Uqt_meta_stringdata_LogWatcher__LogWatcher_t@@B+384
	mov	rcx, QWORD PTR _clname$[rsp]
	call	strcmp
	test	eax, eax
	jne	SHORT $LN3@qt_metacas
; Line 152
	mov	rax, QWORD PTR this$[rsp]
	jmp	SHORT $LN1@qt_metacas
$LN3@qt_metacas:
; Line 153
	mov	rdx, QWORD PTR _clname$[rsp]
	mov	rcx, QWORD PTR this$[rsp]
	call	QWORD PTR __imp_?qt_metacast@QMainWindow@@UEAAPEAXPEBD@Z
$LN1@qt_metacas:
; Line 154
	add	rsp, 40					; 00000028H
	ret	0
?qt_metacast@LogWatcher@1@UEAAPEAXPEBD@Z ENDP		; LogWatcher::LogWatcher::qt_metacast
_TEXT	ENDS
; Function compile flags: /Odtp
_TEXT	SEGMENT
tv82 = 32
this$ = 64
?metaObject@LogWatcher@1@UEBAPEBUQMetaObject@@XZ PROC	; LogWatcher::LogWatcher::metaObject
; File d:\builder\c++\logwatcher\64bit version\v1.6\logwatcher\logwatcher\x64\debug\moc\moc_logwatcher.cpp
; Line 144
$LN5:
	mov	QWORD PTR [rsp+8], rcx
	sub	rsp, 56					; 00000038H
; Line 145
	mov	rax, QWORD PTR this$[rsp]
	add	rax, 8
	mov	rcx, rax
	call	??C?$QScopedPointer@VQObjectData@@U?$QScopedPointerDeleter@VQObjectData@@@@@@QEBAPEAVQObjectData@@XZ ; QScopedPointer<QObjectData,QScopedPointerDeleter<QObjectData> >::operator->
	cmp	QWORD PTR [rax+40], 0
	je	SHORT $LN3@metaObject
	mov	rax, QWORD PTR this$[rsp]
	add	rax, 8
	mov	rcx, rax
	call	??C?$QScopedPointer@VQObjectData@@U?$QScopedPointerDeleter@VQObjectData@@@@@@QEBAPEAVQObjectData@@XZ ; QScopedPointer<QObjectData,QScopedPointerDeleter<QObjectData> >::operator->
	mov	rcx, rax
	call	QWORD PTR __imp_?dynamicMetaObject@QObjectData@@QEBAPEAUQMetaObject@@XZ
	mov	QWORD PTR tv82[rsp], rax
	jmp	SHORT $LN4@metaObject
$LN3@metaObject:
	lea	rax, OFFSET FLAT:?staticMetaObject@LogWatcher@1@2UQMetaObject@@B ; LogWatcher::LogWatcher::staticMetaObject
	mov	QWORD PTR tv82[rsp], rax
$LN4@metaObject:
	mov	rax, QWORD PTR tv82[rsp]
; Line 146
	add	rsp, 56					; 00000038H
	ret	0
?metaObject@LogWatcher@1@UEBAPEBUQMetaObject@@XZ ENDP	; LogWatcher::LogWatcher::metaObject
_TEXT	ENDS
; Function compile flags: /Odtp
;	COMDAT ??C?$QScopedPointer@VQObjectData@@U?$QScopedPointerDeleter@VQObjectData@@@@@@QEBAPEAVQObjectData@@XZ
_TEXT	SEGMENT
this$ = 8
??C?$QScopedPointer@VQObjectData@@U?$QScopedPointerDeleter@VQObjectData@@@@@@QEBAPEAVQObjectData@@XZ PROC ; QScopedPointer<QObjectData,QScopedPointerDeleter<QObjectData> >::operator->, COMDAT
; File c:\qt\qt5.13.0\5.13.0\msvc2017_64\include\qtcore\qscopedpointer.h
; Line 117
	mov	QWORD PTR [rsp+8], rcx
; Line 118
	mov	rax, QWORD PTR this$[rsp]
	mov	rax, QWORD PTR [rax]
; Line 119
	ret	0
??C?$QScopedPointer@VQObjectData@@U?$QScopedPointerDeleter@VQObjectData@@@@@@QEBAPEAVQObjectData@@XZ ENDP ; QScopedPointer<QObjectData,QScopedPointerDeleter<QObjectData> >::operator->
_TEXT	ENDS
; Function compile flags: /Odtp
;	COMDAT ?__empty_global_delete@@YAXPEAX_K@Z
_TEXT	SEGMENT
__formal$ = 8
__formal$ = 16
?__empty_global_delete@@YAXPEAX_K@Z PROC		; __empty_global_delete, COMDAT
; File d:\builder\c++\logwatcher\64bit version\v1.6\logwatcher\logwatcher\x64\debug\moc\moc_logwatcher.cpp
; Line 174
	mov	QWORD PTR [rsp+16], rdx
	mov	QWORD PTR [rsp+8], rcx
	ret	0
?__empty_global_delete@@YAXPEAX_K@Z ENDP		; __empty_global_delete
_TEXT	ENDS
; Function compile flags: /Odtp
;	COMDAT ?__empty_global_delete@@YAXPEAX@Z
_TEXT	SEGMENT
__formal$ = 8
?__empty_global_delete@@YAXPEAX@Z PROC			; __empty_global_delete, COMDAT
; File d:\builder\c++\logwatcher\64bit version\v1.6\logwatcher\logwatcher\x64\debug\moc\moc_logwatcher.cpp
; Line 174
	mov	QWORD PTR [rsp+8], rcx
	ret	0
?__empty_global_delete@@YAXPEAX@Z ENDP			; __empty_global_delete
_TEXT	ENDS
END
